; Listing generated by Microsoft (R) Optimizing Compiler Version 19.16.27045.0 

	TITLE	C:\Users\jeschete\Documents\projects\CPPLearning\CPPLearning\HackerRank.cpp
	.686P
	.XMM
	include listing.inc
	.model	flat

INCLUDELIB MSVCRTD
INCLUDELIB OLDNAMES

msvcjmc	SEGMENT
__B3C80B7E_vcruntime_new@h DB 01H
__A73354DD_stdlib@h DB 01H
__188180DA_corecrt_math@h DB 01H
__6A5170F6_cstdlib DB 01H
__5890711B_xtgmath@h DB 01H
__B918FC5D_cmath DB 01H
__2CC6E67D_corecrt_stdio_config@h DB 01H
__05476D76_corecrt_wstdio@h DB 01H
__A452D4A0_stdio@h DB 01H
__4384A2D9_corecrt_memcpy_s@h DB 01H
__2088847F_corecrt_memory@h DB 01H
__4E51A221_corecrt_wstring@h DB 01H
__2140C079_string@h DB 01H
__F87210DE_type_traits DB 01H
__331E732B_malloc@h DB 01H
__7F71F2A1_vcruntime_exception@h DB 01H
__16EF6878_exception DB 01H
__41381B41_corecrt_wconio@h DB 01H
__F0CC4AC4_corecrt_wio@h DB 01H
__C0802A2B_corecrt_wtime@h DB 01H
__A40A425D_stat@h DB 01H
__5A74375D_wchar@h DB 01H
__60E6D3E0_limits DB 01H
__AC0F0666_iosfwd DB 01H
__DB64A6E0_xutility DB 01H
__C280E298_xatomic0@h DB 01H
__0A3767B1_xmemory0 DB 01H
__9FA15225_stdexcept DB 01H
__0FF0B5FF_vcruntime_typeinfo@h DB 01H
__7B7A869E_ctype@h DB 01H
__B432B631_xlocinfo DB 01H
__DC48DF6E_memory DB 01H
__F00D8861_xfacet DB 01H
__9C246413_xlocale DB 01H
__89CA5CBC_xcall_once@h DB 01H
__36974E9C_system_error DB 01H
__8DD7C122_xiosbase DB 01H
__02A30204_xlocnum DB 01H
__55303565_ios DB 01H
__A89B59F2_string DB 01H
__29C1173C_xlocmon DB 01H
__04AA828A_time@h DB 01H
__102F1F23_xloctime DB 01H
__FC232AAC_algorithm DB 01H
__0E0CEABF_hackerrank@cpp DB 01H
__2D4BA300_vector DB 01H
__431A1022_xstring DB 01H
__ECE48BED_istream DB 01H
__8F34BED7_ostream DB 01H
__9D01EA99_streambuf DB 01H
__5D5CF57D_utility DB 01H
__AA43626F_xstddef DB 01H
__10264DBF_iomanip DB 01H
__692CDE51_numeric DB 01H
__37C996BE_xmemory DB 01H
msvcjmc	ENDS
PUBLIC	?__empty_global_delete@@YAXPAX@Z		; __empty_global_delete
PUBLIC	?__empty_global_delete@@YAXPAXI@Z		; __empty_global_delete
PUBLIC	??2@YAPAXIPAX@Z					; operator new
PUBLIC	_wmemcpy
PUBLIC	?max@?$numeric_limits@H@std@@SAHXZ		; std::numeric_limits<int>::max
PUBLIC	?length@?$char_traits@D@std@@SAIQBD@Z		; std::char_traits<char>::length
PUBLIC	?eq_int_type@?$char_traits@D@std@@SA_NABH0@Z	; std::char_traits<char>::eq_int_type
PUBLIC	?eof@?$char_traits@D@std@@SAHXZ			; std::char_traits<char>::eof
PUBLIC	??0_Container_proxy@std@@QAE@XZ			; std::_Container_proxy::_Container_proxy
PUBLIC	??0_Container_base12@std@@QAE@XZ		; std::_Container_base12::_Container_base12
PUBLIC	?_Getpfirst@_Container_base12@std@@QBEPAPAU_Iterator_base12@2@XZ ; std::_Container_base12::_Getpfirst
PUBLIC	?_Orphan_all@_Container_base12@std@@QAEXXZ	; std::_Container_base12::_Orphan_all
PUBLIC	??0_Iterator_base12@std@@QAE@XZ			; std::_Iterator_base12::_Iterator_base12
PUBLIC	??0_Iterator_base12@std@@QAE@ABU01@@Z		; std::_Iterator_base12::_Iterator_base12
PUBLIC	??4_Iterator_base12@std@@QAEAAU01@ABU01@@Z	; std::_Iterator_base12::operator=
PUBLIC	??1_Iterator_base12@std@@QAE@XZ			; std::_Iterator_base12::~_Iterator_base12
PUBLIC	?_Adopt@_Iterator_base12@std@@QAEXPBU_Container_base12@2@@Z ; std::_Iterator_base12::_Adopt
PUBLIC	?_Clrcont@_Iterator_base12@std@@QAEXXZ		; std::_Iterator_base12::_Clrcont
PUBLIC	?_Getcont@_Iterator_base12@std@@QBEPBU_Container_base12@2@XZ ; std::_Iterator_base12::_Getcont
PUBLIC	?_Getpnext@_Iterator_base12@std@@QAEPAPAU12@XZ	; std::_Iterator_base12::_Getpnext
PUBLIC	?_Orphan_me@_Iterator_base12@std@@QAEXXZ	; std::_Iterator_base12::_Orphan_me
PUBLIC	?_Allocate@_Default_allocate_traits@std@@SAPAXI@Z ; std::_Default_allocate_traits::_Allocate
PUBLIC	?_Adjust_manually_vector_aligned@std@@YAXAAPAXAAI@Z ; std::_Adjust_manually_vector_aligned
PUBLIC	??$_Convert_size@I@std@@YAII@Z			; std::_Convert_size<unsigned int>
PUBLIC	??$_Min_value@I@std@@YAABIABI0@Z		; std::_Min_value<unsigned int>
PUBLIC	??$_Maklocstr@_W@std@@YAPA_WPBDPA_WABU_Cvtvec@@@Z ; std::_Maklocstr<wchar_t>
PUBLIC	?_Maklocwcs@std@@YAPA_WPB_W@Z			; std::_Maklocwcs
PUBLIC	?fixed@std@@YAAAVios_base@1@AAV21@@Z		; std::fixed
PUBLIC	?diagonalDifference@@YAHV?$vector@V?$vector@HV?$allocator@H@std@@@std@@V?$allocator@V?$vector@HV?$allocator@H@std@@@std@@@2@@std@@@Z ; diagonalDifference
PUBLIC	?plusMinus@@YAXV?$vector@HV?$allocator@H@std@@@std@@@Z ; plusMinus
PUBLIC	?staircase@@YAXH@Z				; staircase
PUBLIC	?miniMaxSum@@YAXV?$vector@HV?$allocator@H@std@@@std@@@Z ; miniMaxSum
PUBLIC	??$_Getvals@_W@?$time_get@DV?$istreambuf_iterator@DU?$char_traits@D@std@@@std@@@std@@IAEX_WABV_Locinfo@1@@Z ; std::time_get<char,std::istreambuf_iterator<char,std::char_traits<char> > >::_Getvals<wchar_t>
PUBLIC	??$_Getvals@_W@?$time_get@_WV?$istreambuf_iterator@_WU?$char_traits@_W@std@@@std@@@std@@IAEX_WABV_Locinfo@1@@Z ; std::time_get<wchar_t,std::istreambuf_iterator<wchar_t,std::char_traits<wchar_t> > >::_Getvals<wchar_t>
PUBLIC	?deallocate@?$allocator@V?$vector@HV?$allocator@H@std@@@std@@@std@@QAEXQAV?$vector@HV?$allocator@H@std@@@2@I@Z ; std::allocator<std::vector<int,std::allocator<int> > >::deallocate
PUBLIC	??1?$_Vector_alloc@U?$_Vec_base_types@V?$vector@HV?$allocator@H@std@@@std@@V?$allocator@V?$vector@HV?$allocator@H@std@@@std@@@2@@std@@@std@@QAE@XZ ; std::_Vector_alloc<std::_Vec_base_types<std::vector<int,std::allocator<int> >,std::allocator<std::vector<int,std::allocator<int> > > > >::~_Vector_alloc<std::_Vec_base_types<std::vector<int,std::allocator<int> >,std::allocator<std::vector<int,std::allocator<int> > > > >
PUBLIC	?_Free_proxy@?$_Vector_alloc@U?$_Vec_base_types@V?$vector@HV?$allocator@H@std@@@std@@V?$allocator@V?$vector@HV?$allocator@H@std@@@std@@@2@@std@@@std@@QAEXXZ ; std::_Vector_alloc<std::_Vec_base_types<std::vector<int,std::allocator<int> >,std::allocator<std::vector<int,std::allocator<int> > > > >::_Free_proxy
PUBLIC	?_Myproxy@?$_Vector_alloc@U?$_Vec_base_types@V?$vector@HV?$allocator@H@std@@@std@@V?$allocator@V?$vector@HV?$allocator@H@std@@@std@@@2@@std@@@std@@QAEAAPAU_Container_proxy@2@XZ ; std::_Vector_alloc<std::_Vec_base_types<std::vector<int,std::allocator<int> >,std::allocator<std::vector<int,std::allocator<int> > > > >::_Myproxy
PUBLIC	?_Orphan_all@?$_Vector_alloc@U?$_Vec_base_types@V?$vector@HV?$allocator@H@std@@@std@@V?$allocator@V?$vector@HV?$allocator@H@std@@@std@@@2@@std@@@std@@QAEXXZ ; std::_Vector_alloc<std::_Vec_base_types<std::vector<int,std::allocator<int> >,std::allocator<std::vector<int,std::allocator<int> > > > >::_Orphan_all
PUBLIC	?_Getal@?$_Vector_alloc@U?$_Vec_base_types@V?$vector@HV?$allocator@H@std@@@std@@V?$allocator@V?$vector@HV?$allocator@H@std@@@std@@@2@@std@@@std@@QAEAAV?$allocator@V?$vector@HV?$allocator@H@std@@@std@@@2@XZ ; std::_Vector_alloc<std::_Vec_base_types<std::vector<int,std::allocator<int> >,std::allocator<std::vector<int,std::allocator<int> > > > >::_Getal
PUBLIC	?_Get_data@?$_Vector_alloc@U?$_Vec_base_types@V?$vector@HV?$allocator@H@std@@@std@@V?$allocator@V?$vector@HV?$allocator@H@std@@@std@@@2@@std@@@std@@QAEAAV?$_Vector_val@U?$_Simple_types@V?$vector@HV?$allocator@H@std@@@std@@@std@@@2@XZ ; std::_Vector_alloc<std::_Vec_base_types<std::vector<int,std::allocator<int> >,std::allocator<std::vector<int,std::allocator<int> > > > >::_Get_data
PUBLIC	?_Get_data@?$_Vector_alloc@U?$_Vec_base_types@V?$vector@HV?$allocator@H@std@@@std@@V?$allocator@V?$vector@HV?$allocator@H@std@@@std@@@2@@std@@@std@@QBEABV?$_Vector_val@U?$_Simple_types@V?$vector@HV?$allocator@H@std@@@std@@@std@@@2@XZ ; std::_Vector_alloc<std::_Vec_base_types<std::vector<int,std::allocator<int> >,std::allocator<std::vector<int,std::allocator<int> > > > >::_Get_data
PUBLIC	?_Myfirst@?$_Vector_alloc@U?$_Vec_base_types@V?$vector@HV?$allocator@H@std@@@std@@V?$allocator@V?$vector@HV?$allocator@H@std@@@std@@@2@@std@@@std@@QAEAAPAV?$vector@HV?$allocator@H@std@@@2@XZ ; std::_Vector_alloc<std::_Vec_base_types<std::vector<int,std::allocator<int> >,std::allocator<std::vector<int,std::allocator<int> > > > >::_Myfirst
PUBLIC	?_Myfirst@?$_Vector_alloc@U?$_Vec_base_types@V?$vector@HV?$allocator@H@std@@@std@@V?$allocator@V?$vector@HV?$allocator@H@std@@@std@@@2@@std@@@std@@QBEABQAV?$vector@HV?$allocator@H@std@@@2@XZ ; std::_Vector_alloc<std::_Vec_base_types<std::vector<int,std::allocator<int> >,std::allocator<std::vector<int,std::allocator<int> > > > >::_Myfirst
PUBLIC	?_Mylast@?$_Vector_alloc@U?$_Vec_base_types@V?$vector@HV?$allocator@H@std@@@std@@V?$allocator@V?$vector@HV?$allocator@H@std@@@std@@@2@@std@@@std@@QAEAAPAV?$vector@HV?$allocator@H@std@@@2@XZ ; std::_Vector_alloc<std::_Vec_base_types<std::vector<int,std::allocator<int> >,std::allocator<std::vector<int,std::allocator<int> > > > >::_Mylast
PUBLIC	?_Mylast@?$_Vector_alloc@U?$_Vec_base_types@V?$vector@HV?$allocator@H@std@@@std@@V?$allocator@V?$vector@HV?$allocator@H@std@@@std@@@2@@std@@@std@@QBEABQAV?$vector@HV?$allocator@H@std@@@2@XZ ; std::_Vector_alloc<std::_Vec_base_types<std::vector<int,std::allocator<int> >,std::allocator<std::vector<int,std::allocator<int> > > > >::_Mylast
PUBLIC	?_Myend@?$_Vector_alloc@U?$_Vec_base_types@V?$vector@HV?$allocator@H@std@@@std@@V?$allocator@V?$vector@HV?$allocator@H@std@@@std@@@2@@std@@@std@@QAEAAPAV?$vector@HV?$allocator@H@std@@@2@XZ ; std::_Vector_alloc<std::_Vec_base_types<std::vector<int,std::allocator<int> >,std::allocator<std::vector<int,std::allocator<int> > > > >::_Myend
PUBLIC	?_Myend@?$_Vector_alloc@U?$_Vec_base_types@V?$vector@HV?$allocator@H@std@@@std@@V?$allocator@V?$vector@HV?$allocator@H@std@@@std@@@2@@std@@@std@@QBEABQAV?$vector@HV?$allocator@H@std@@@2@XZ ; std::_Vector_alloc<std::_Vec_base_types<std::vector<int,std::allocator<int> >,std::allocator<std::vector<int,std::allocator<int> > > > >::_Myend
PUBLIC	?_Get_first@?$_Compressed_pair@V?$allocator@V?$vector@HV?$allocator@H@std@@@std@@@std@@V?$_Vector_val@U?$_Simple_types@V?$vector@HV?$allocator@H@std@@@std@@@std@@@2@$00@std@@QAEAAV?$allocator@V?$vector@HV?$allocator@H@std@@@std@@@2@XZ ; std::_Compressed_pair<std::allocator<std::vector<int,std::allocator<int> > >,std::_Vector_val<std::_Simple_types<std::vector<int,std::allocator<int> > > >,1>::_Get_first
PUBLIC	?_Get_second@?$_Compressed_pair@V?$allocator@V?$vector@HV?$allocator@H@std@@@std@@@std@@V?$_Vector_val@U?$_Simple_types@V?$vector@HV?$allocator@H@std@@@std@@@std@@@2@$00@std@@QAEAAV?$_Vector_val@U?$_Simple_types@V?$vector@HV?$allocator@H@std@@@std@@@std@@@2@XZ ; std::_Compressed_pair<std::allocator<std::vector<int,std::allocator<int> > >,std::_Vector_val<std::_Simple_types<std::vector<int,std::allocator<int> > > >,1>::_Get_second
PUBLIC	?_Get_second@?$_Compressed_pair@V?$allocator@V?$vector@HV?$allocator@H@std@@@std@@@std@@V?$_Vector_val@U?$_Simple_types@V?$vector@HV?$allocator@H@std@@@std@@@std@@@2@$00@std@@QBEABV?$_Vector_val@U?$_Simple_types@V?$vector@HV?$allocator@H@std@@@std@@@std@@@2@XZ ; std::_Compressed_pair<std::allocator<std::vector<int,std::allocator<int> > >,std::_Vector_val<std::_Simple_types<std::vector<int,std::allocator<int> > > >,1>::_Get_second
PUBLIC	??1?$vector@V?$vector@HV?$allocator@H@std@@@std@@V?$allocator@V?$vector@HV?$allocator@H@std@@@std@@@2@@std@@QAE@XZ ; std::vector<std::vector<int,std::allocator<int> >,std::allocator<std::vector<int,std::allocator<int> > > >::~vector<std::vector<int,std::allocator<int> >,std::allocator<std::vector<int,std::allocator<int> > > >
PUBLIC	?size@?$vector@V?$vector@HV?$allocator@H@std@@@std@@V?$allocator@V?$vector@HV?$allocator@H@std@@@std@@@2@@std@@QBEIXZ ; std::vector<std::vector<int,std::allocator<int> >,std::allocator<std::vector<int,std::allocator<int> > > >::size
PUBLIC	?capacity@?$vector@V?$vector@HV?$allocator@H@std@@@std@@V?$allocator@V?$vector@HV?$allocator@H@std@@@std@@@2@@std@@QBEIXZ ; std::vector<std::vector<int,std::allocator<int> >,std::allocator<std::vector<int,std::allocator<int> > > >::capacity
PUBLIC	??A?$vector@V?$vector@HV?$allocator@H@std@@@std@@V?$allocator@V?$vector@HV?$allocator@H@std@@@std@@@2@@std@@QAEAAV?$vector@HV?$allocator@H@std@@@1@I@Z ; std::vector<std::vector<int,std::allocator<int> >,std::allocator<std::vector<int,std::allocator<int> > > >::operator[]
PUBLIC	?_Destroy@?$vector@V?$vector@HV?$allocator@H@std@@@std@@V?$allocator@V?$vector@HV?$allocator@H@std@@@std@@@2@@std@@AAEXPAV?$vector@HV?$allocator@H@std@@@2@0@Z ; std::vector<std::vector<int,std::allocator<int> >,std::allocator<std::vector<int,std::allocator<int> > > >::_Destroy
PUBLIC	?_Tidy@?$vector@V?$vector@HV?$allocator@H@std@@@std@@V?$allocator@V?$vector@HV?$allocator@H@std@@@std@@@2@@std@@AAEXXZ ; std::vector<std::vector<int,std::allocator<int> >,std::allocator<std::vector<int,std::allocator<int> > > >::_Tidy
PUBLIC	??0?$allocator@H@std@@QAE@XZ			; std::allocator<int>::allocator<int>
PUBLIC	?deallocate@?$allocator@H@std@@QAEXQAHI@Z	; std::allocator<int>::deallocate
PUBLIC	?allocate@?$allocator@H@std@@QAEPAHI@Z		; std::allocator<int>::allocate
PUBLIC	?max_size@?$_Default_allocator_traits@V?$allocator@H@std@@@std@@SAIABV?$allocator@H@2@@Z ; std::_Default_allocator_traits<std::allocator<int> >::max_size
PUBLIC	??1?$_Vector_alloc@U?$_Vec_base_types@HV?$allocator@H@std@@@std@@@std@@QAE@XZ ; std::_Vector_alloc<std::_Vec_base_types<int,std::allocator<int> > >::~_Vector_alloc<std::_Vec_base_types<int,std::allocator<int> > >
PUBLIC	?_Alloc_proxy@?$_Vector_alloc@U?$_Vec_base_types@HV?$allocator@H@std@@@std@@@std@@QAEXXZ ; std::_Vector_alloc<std::_Vec_base_types<int,std::allocator<int> > >::_Alloc_proxy
PUBLIC	?_Free_proxy@?$_Vector_alloc@U?$_Vec_base_types@HV?$allocator@H@std@@@std@@@std@@QAEXXZ ; std::_Vector_alloc<std::_Vec_base_types<int,std::allocator<int> > >::_Free_proxy
PUBLIC	?_Getpfirst@?$_Vector_alloc@U?$_Vec_base_types@HV?$allocator@H@std@@@std@@@std@@QBEPAPAU_Iterator_base12@2@XZ ; std::_Vector_alloc<std::_Vec_base_types<int,std::allocator<int> > >::_Getpfirst
PUBLIC	?_Myproxy@?$_Vector_alloc@U?$_Vec_base_types@HV?$allocator@H@std@@@std@@@std@@QAEAAPAU_Container_proxy@2@XZ ; std::_Vector_alloc<std::_Vec_base_types<int,std::allocator<int> > >::_Myproxy
PUBLIC	?_Orphan_all@?$_Vector_alloc@U?$_Vec_base_types@HV?$allocator@H@std@@@std@@@std@@QAEXXZ ; std::_Vector_alloc<std::_Vec_base_types<int,std::allocator<int> > >::_Orphan_all
PUBLIC	?_Getal@?$_Vector_alloc@U?$_Vec_base_types@HV?$allocator@H@std@@@std@@@std@@QAEAAV?$allocator@H@2@XZ ; std::_Vector_alloc<std::_Vec_base_types<int,std::allocator<int> > >::_Getal
PUBLIC	?_Getal@?$_Vector_alloc@U?$_Vec_base_types@HV?$allocator@H@std@@@std@@@std@@QBEABV?$allocator@H@2@XZ ; std::_Vector_alloc<std::_Vec_base_types<int,std::allocator<int> > >::_Getal
PUBLIC	?_Get_data@?$_Vector_alloc@U?$_Vec_base_types@HV?$allocator@H@std@@@std@@@std@@QAEAAV?$_Vector_val@U?$_Simple_types@H@std@@@2@XZ ; std::_Vector_alloc<std::_Vec_base_types<int,std::allocator<int> > >::_Get_data
PUBLIC	?_Get_data@?$_Vector_alloc@U?$_Vec_base_types@HV?$allocator@H@std@@@std@@@std@@QBEABV?$_Vector_val@U?$_Simple_types@H@std@@@2@XZ ; std::_Vector_alloc<std::_Vec_base_types<int,std::allocator<int> > >::_Get_data
PUBLIC	?_Myfirst@?$_Vector_alloc@U?$_Vec_base_types@HV?$allocator@H@std@@@std@@@std@@QAEAAPAHXZ ; std::_Vector_alloc<std::_Vec_base_types<int,std::allocator<int> > >::_Myfirst
PUBLIC	?_Myfirst@?$_Vector_alloc@U?$_Vec_base_types@HV?$allocator@H@std@@@std@@@std@@QBEABQAHXZ ; std::_Vector_alloc<std::_Vec_base_types<int,std::allocator<int> > >::_Myfirst
PUBLIC	?_Mylast@?$_Vector_alloc@U?$_Vec_base_types@HV?$allocator@H@std@@@std@@@std@@QAEAAPAHXZ ; std::_Vector_alloc<std::_Vec_base_types<int,std::allocator<int> > >::_Mylast
PUBLIC	?_Mylast@?$_Vector_alloc@U?$_Vec_base_types@HV?$allocator@H@std@@@std@@@std@@QBEABQAHXZ ; std::_Vector_alloc<std::_Vec_base_types<int,std::allocator<int> > >::_Mylast
PUBLIC	?_Myend@?$_Vector_alloc@U?$_Vec_base_types@HV?$allocator@H@std@@@std@@@std@@QAEAAPAHXZ ; std::_Vector_alloc<std::_Vec_base_types<int,std::allocator<int> > >::_Myend
PUBLIC	?_Myend@?$_Vector_alloc@U?$_Vec_base_types@HV?$allocator@H@std@@@std@@@std@@QBEABQAHXZ ; std::_Vector_alloc<std::_Vec_base_types<int,std::allocator<int> > >::_Myend
PUBLIC	??0?$_Vector_val@U?$_Simple_types@H@std@@@std@@QAE@XZ ; std::_Vector_val<std::_Simple_types<int> >::_Vector_val<std::_Simple_types<int> >
PUBLIC	?_Get_first@?$_Compressed_pair@V?$allocator@H@std@@V?$_Vector_val@U?$_Simple_types@H@std@@@2@$00@std@@QAEAAV?$allocator@H@2@XZ ; std::_Compressed_pair<std::allocator<int>,std::_Vector_val<std::_Simple_types<int> >,1>::_Get_first
PUBLIC	?_Get_first@?$_Compressed_pair@V?$allocator@H@std@@V?$_Vector_val@U?$_Simple_types@H@std@@@2@$00@std@@QBEABV?$allocator@H@2@XZ ; std::_Compressed_pair<std::allocator<int>,std::_Vector_val<std::_Simple_types<int> >,1>::_Get_first
PUBLIC	?_Get_second@?$_Compressed_pair@V?$allocator@H@std@@V?$_Vector_val@U?$_Simple_types@H@std@@@2@$00@std@@QAEAAV?$_Vector_val@U?$_Simple_types@H@std@@@2@XZ ; std::_Compressed_pair<std::allocator<int>,std::_Vector_val<std::_Simple_types<int> >,1>::_Get_second
PUBLIC	?_Get_second@?$_Compressed_pair@V?$allocator@H@std@@V?$_Vector_val@U?$_Simple_types@H@std@@@2@$00@std@@QBEABV?$_Vector_val@U?$_Simple_types@H@std@@@2@XZ ; std::_Compressed_pair<std::allocator<int>,std::_Vector_val<std::_Simple_types<int> >,1>::_Get_second
PUBLIC	??1?$vector@HV?$allocator@H@std@@@std@@QAE@XZ	; std::vector<int,std::allocator<int> >::~vector<int,std::allocator<int> >
PUBLIC	?erase@?$vector@HV?$allocator@H@std@@@std@@QAE?AV?$_Vector_iterator@V?$_Vector_val@U?$_Simple_types@H@std@@@std@@@2@V?$_Vector_const_iterator@V?$_Vector_val@U?$_Simple_types@H@std@@@std@@@2@@Z ; std::vector<int,std::allocator<int> >::erase
PUBLIC	?begin@?$vector@HV?$allocator@H@std@@@std@@QAE?AV?$_Vector_iterator@V?$_Vector_val@U?$_Simple_types@H@std@@@std@@@2@XZ ; std::vector<int,std::allocator<int> >::begin
PUBLIC	?end@?$vector@HV?$allocator@H@std@@@std@@QAE?AV?$_Vector_iterator@V?$_Vector_val@U?$_Simple_types@H@std@@@std@@@2@XZ ; std::vector<int,std::allocator<int> >::end
PUBLIC	?_Unchecked_begin@?$vector@HV?$allocator@H@std@@@std@@QAEPAHXZ ; std::vector<int,std::allocator<int> >::_Unchecked_begin
PUBLIC	?_Unchecked_end@?$vector@HV?$allocator@H@std@@@std@@QAEPAHXZ ; std::vector<int,std::allocator<int> >::_Unchecked_end
PUBLIC	?size@?$vector@HV?$allocator@H@std@@@std@@QBEIXZ ; std::vector<int,std::allocator<int> >::size
PUBLIC	?max_size@?$vector@HV?$allocator@H@std@@@std@@QBEIXZ ; std::vector<int,std::allocator<int> >::max_size
PUBLIC	?capacity@?$vector@HV?$allocator@H@std@@@std@@QBEIXZ ; std::vector<int,std::allocator<int> >::capacity
PUBLIC	??A?$vector@HV?$allocator@H@std@@@std@@QAEAAHI@Z ; std::vector<int,std::allocator<int> >::operator[]
PUBLIC	?_Destroy@?$vector@HV?$allocator@H@std@@@std@@AAEXPAH0@Z ; std::vector<int,std::allocator<int> >::_Destroy
PUBLIC	?_Buy@?$vector@HV?$allocator@H@std@@@std@@AAE_NI@Z ; std::vector<int,std::allocator<int> >::_Buy
PUBLIC	?_Tidy@?$vector@HV?$allocator@H@std@@@std@@AAEXXZ ; std::vector<int,std::allocator<int> >::_Tidy
PUBLIC	?_Xlength@?$vector@HV?$allocator@H@std@@@std@@CAXXZ ; std::vector<int,std::allocator<int> >::_Xlength
PUBLIC	?_Orphan_range@?$vector@HV?$allocator@H@std@@@std@@ABEXPAH0@Z ; std::vector<int,std::allocator<int> >::_Orphan_range
PUBLIC	?__autoclassinit2@?$vector@HV?$allocator@H@std@@@std@@QAEXI@Z ; std::vector<int,std::allocator<int> >::__autoclassinit2
PUBLIC	??_G?$vector@HV?$allocator@H@std@@@std@@QAEPAXI@Z ; std::vector<int,std::allocator<int> >::`scalar deleting destructor'
PUBLIC	??$?6U?$char_traits@D@std@@@std@@YAAAV?$basic_ostream@DU?$char_traits@D@std@@@0@AAV10@PBD@Z ; std::operator<<<std::char_traits<char> >
PUBLIC	??$?6DU?$char_traits@D@std@@_J@std@@YAAAV?$basic_ostream@DU?$char_traits@D@std@@@0@AAV10@ABU?$_Smanip@_J@0@@Z ; std::operator<<<char,std::char_traits<char>,__int64>
PUBLIC	??0?$_Vector_const_iterator@V?$_Vector_val@U?$_Simple_types@H@std@@@std@@@std@@QAE@PAHPBU_Container_base12@1@@Z ; std::_Vector_const_iterator<std::_Vector_val<std::_Simple_types<int> > >::_Vector_const_iterator<std::_Vector_val<std::_Simple_types<int> > >
PUBLIC	??D?$_Vector_const_iterator@V?$_Vector_val@U?$_Simple_types@H@std@@@std@@@std@@QBEABHXZ ; std::_Vector_const_iterator<std::_Vector_val<std::_Simple_types<int> > >::operator*
PUBLIC	?_Verify_range@std@@YAXABV?$_Vector_const_iterator@V?$_Vector_val@U?$_Simple_types@H@std@@@std@@@1@0@Z ; std::_Verify_range
PUBLIC	?_Seek_to@?$_Vector_const_iterator@V?$_Vector_val@U?$_Simple_types@H@std@@@std@@@std@@QAEXPBH@Z ; std::_Vector_const_iterator<std::_Vector_val<std::_Simple_types<int> > >::_Seek_to
PUBLIC	??1?$_Vector_const_iterator@V?$_Vector_val@U?$_Simple_types@H@std@@@std@@@std@@QAE@XZ ; std::_Vector_const_iterator<std::_Vector_val<std::_Simple_types<int> > >::~_Vector_const_iterator<std::_Vector_val<std::_Simple_types<int> > >
PUBLIC	??0?$_Vector_const_iterator@V?$_Vector_val@U?$_Simple_types@H@std@@@std@@@std@@QAE@ABV01@@Z ; std::_Vector_const_iterator<std::_Vector_val<std::_Simple_types<int> > >::_Vector_const_iterator<std::_Vector_val<std::_Simple_types<int> > >
PUBLIC	??0?$_Vector_const_iterator@V?$_Vector_val@U?$_Simple_types@H@std@@@std@@@std@@QAE@$$QAV01@@Z ; std::_Vector_const_iterator<std::_Vector_val<std::_Simple_types<int> > >::_Vector_const_iterator<std::_Vector_val<std::_Simple_types<int> > >
PUBLIC	??0?$_Vector_iterator@V?$_Vector_val@U?$_Simple_types@H@std@@@std@@@std@@QAE@PAHPBU_Container_base12@1@@Z ; std::_Vector_iterator<std::_Vector_val<std::_Simple_types<int> > >::_Vector_iterator<std::_Vector_val<std::_Simple_types<int> > >
PUBLIC	??D?$_Vector_iterator@V?$_Vector_val@U?$_Simple_types@H@std@@@std@@@std@@QBEAAHXZ ; std::_Vector_iterator<std::_Vector_val<std::_Simple_types<int> > >::operator*
PUBLIC	?_Unwrapped@?$_Vector_iterator@V?$_Vector_val@U?$_Simple_types@H@std@@@std@@@std@@QBEPAHXZ ; std::_Vector_iterator<std::_Vector_val<std::_Simple_types<int> > >::_Unwrapped
PUBLIC	??1?$_Vector_iterator@V?$_Vector_val@U?$_Simple_types@H@std@@@std@@@std@@QAE@XZ ; std::_Vector_iterator<std::_Vector_val<std::_Simple_types<int> > >::~_Vector_iterator<std::_Vector_val<std::_Simple_types<int> > >
PUBLIC	??0?$_Vector_iterator@V?$_Vector_val@U?$_Simple_types@H@std@@@std@@@std@@QAE@ABV01@@Z ; std::_Vector_iterator<std::_Vector_val<std::_Simple_types<int> > >::_Vector_iterator<std::_Vector_val<std::_Simple_types<int> > >
PUBLIC	??0?$_Vector_iterator@V?$_Vector_val@U?$_Simple_types@H@std@@@std@@@std@@QAE@$$QAV01@@Z ; std::_Vector_iterator<std::_Vector_val<std::_Simple_types<int> > >::_Vector_iterator<std::_Vector_val<std::_Simple_types<int> > >
PUBLIC	??$?0V?$_Vector_iterator@V?$_Vector_val@U?$_Simple_types@H@std@@@std@@@std@@X@?$vector@HV?$allocator@H@std@@@std@@QAE@V?$_Vector_iterator@V?$_Vector_val@U?$_Simple_types@H@std@@@std@@@1@0ABV?$allocator@H@1@@Z ; std::vector<int,std::allocator<int> >::vector<int,std::allocator<int> ><std::_Vector_iterator<std::_Vector_val<std::_Simple_types<int> > >,void>
PUBLIC	??$max_element@V?$_Vector_iterator@V?$_Vector_val@U?$_Simple_types@H@std@@@std@@@std@@@std@@YA?AV?$_Vector_iterator@V?$_Vector_val@U?$_Simple_types@H@std@@@std@@@0@V10@0@Z ; std::max_element<std::_Vector_iterator<std::_Vector_val<std::_Simple_types<int> > > >
PUBLIC	??$find@V?$_Vector_iterator@V?$_Vector_val@U?$_Simple_types@H@std@@@std@@@std@@H@std@@YA?AV?$_Vector_iterator@V?$_Vector_val@U?$_Simple_types@H@std@@@std@@@0@V10@V10@ABH@Z ; std::find<std::_Vector_iterator<std::_Vector_val<std::_Simple_types<int> > >,int>
PUBLIC	??$accumulate@V?$_Vector_iterator@V?$_Vector_val@U?$_Simple_types@H@std@@@std@@@std@@_K@std@@YA_KV?$_Vector_iterator@V?$_Vector_val@U?$_Simple_types@H@std@@@std@@@0@0_K@Z ; std::accumulate<std::_Vector_iterator<std::_Vector_val<std::_Simple_types<int> > >,unsigned __int64>
PUBLIC	??$addressof@V?$_Vector_val@U?$_Simple_types@H@std@@@std@@@std@@YAPAV?$_Vector_val@U?$_Simple_types@H@std@@@0@AAV10@@Z ; std::addressof<std::_Vector_val<std::_Simple_types<int> > >
PUBLIC	??$_Move_unchecked@PAHPAH@std@@YAPAHPAH00@Z	; std::_Move_unchecked<int *,int *>
PUBLIC	??$_Unfancy@H@std@@YAPAHPAH@Z			; std::_Unfancy<int>
PUBLIC	??$destroy@H@?$_Default_allocator_traits@V?$allocator@H@std@@@std@@SAXAAV?$allocator@H@1@QAH@Z ; std::_Default_allocator_traits<std::allocator<int> >::destroy<int>
PUBLIC	??0_Sentry_base@?$basic_ostream@DU?$char_traits@D@std@@@std@@QAE@AAV12@@Z ; std::basic_ostream<char,std::char_traits<char> >::_Sentry_base::_Sentry_base
PUBLIC	??1_Sentry_base@?$basic_ostream@DU?$char_traits@D@std@@@std@@QAE@XZ ; std::basic_ostream<char,std::char_traits<char> >::_Sentry_base::~_Sentry_base
PUBLIC	??0sentry@?$basic_ostream@DU?$char_traits@D@std@@@std@@QAE@AAV12@@Z ; std::basic_ostream<char,std::char_traits<char> >::sentry::sentry
PUBLIC	??1sentry@?$basic_ostream@DU?$char_traits@D@std@@@std@@QAE@XZ ; std::basic_ostream<char,std::char_traits<char> >::sentry::~sentry
PUBLIC	??Bsentry@?$basic_ostream@DU?$char_traits@D@std@@@std@@QBE_NXZ ; std::basic_ostream<char,std::char_traits<char> >::sentry::operator bool
PUBLIC	??$_Allocate@$07U_Default_allocate_traits@std@@$0A@@std@@YAPAXI@Z ; std::_Allocate<8,std::_Default_allocate_traits,0>
PUBLIC	??$_Deallocate@$07$0A@@std@@YAXPAXI@Z		; std::_Deallocate<8,0>
PUBLIC	?allocate@?$allocator@U_Container_proxy@std@@@std@@QAEPAU_Container_proxy@2@I@Z ; std::allocator<std::_Container_proxy>::allocate
PUBLIC	??$?0H@?$allocator@U_Container_proxy@std@@@std@@QAE@ABV?$allocator@H@1@@Z ; std::allocator<std::_Container_proxy>::allocator<std::_Container_proxy><int>
PUBLIC	?deallocate@?$_Default_allocator_traits@V?$allocator@U_Container_proxy@std@@@std@@@std@@SAXAAV?$allocator@U_Container_proxy@std@@@2@QAU_Container_proxy@2@I@Z ; std::_Default_allocator_traits<std::allocator<std::_Container_proxy> >::deallocate
PUBLIC	??$destroy@U_Container_proxy@std@@@?$_Default_allocator_traits@V?$allocator@U_Container_proxy@std@@@std@@@std@@SAXAAV?$allocator@U_Container_proxy@std@@@1@QAU_Container_proxy@1@@Z ; std::_Default_allocator_traits<std::allocator<std::_Container_proxy> >::destroy<std::_Container_proxy>
PUBLIC	??$_Deallocate_plain@V?$allocator@U_Container_proxy@std@@@std@@$0A@@std@@YAXAAV?$allocator@U_Container_proxy@std@@@0@QAU_Container_proxy@0@@Z ; std::_Deallocate_plain<std::allocator<std::_Container_proxy>,0>
PUBLIC	??$?0V?$vector@HV?$allocator@H@std@@@std@@@?$allocator@U_Container_proxy@std@@@std@@QAE@ABV?$allocator@V?$vector@HV?$allocator@H@std@@@std@@@1@@Z ; std::allocator<std::_Container_proxy>::allocator<std::_Container_proxy><std::vector<int,std::allocator<int> > >
PUBLIC	??$_Destroy_range@V?$allocator@V?$vector@HV?$allocator@H@std@@@std@@@std@@@std@@YAXPAV?$vector@HV?$allocator@H@std@@@0@0AAV?$allocator@V?$vector@HV?$allocator@H@std@@@std@@@0@@Z ; std::_Destroy_range<std::allocator<std::vector<int,std::allocator<int> > > >
PUBLIC	??$_Destroy_range@V?$allocator@H@std@@@std@@YAXPAH0AAV?$allocator@H@0@@Z ; std::_Destroy_range<std::allocator<int> >
PUBLIC	??$_Unfancy@U_Container_proxy@std@@@std@@YAPAU_Container_proxy@0@PAU10@@Z ; std::_Unfancy<std::_Container_proxy>
PUBLIC	??$construct@U_Container_proxy@std@@U12@@?$_Default_allocator_traits@V?$allocator@U_Container_proxy@std@@@std@@@std@@SAXAAV?$allocator@U_Container_proxy@std@@@1@QAU_Container_proxy@1@$$QAU31@@Z ; std::_Default_allocator_traits<std::allocator<std::_Container_proxy> >::construct<std::_Container_proxy,std::_Container_proxy>
PUBLIC	??$_Get_size_of_n@$07@std@@YAII@Z		; std::_Get_size_of_n<8>
PUBLIC	??$_Maklocstr@D@std@@YAPADPBDPADABU_Cvtvec@@@Z	; std::_Maklocstr<char>
PUBLIC	??$?0ABV?$allocator@H@std@@X@?$_Vector_alloc@U?$_Vec_base_types@HV?$allocator@H@std@@@std@@@std@@QAE@ABV?$allocator@H@1@@Z ; std::_Vector_alloc<std::_Vec_base_types<int,std::allocator<int> > >::_Vector_alloc<std::_Vec_base_types<int,std::allocator<int> > ><std::allocator<int> const &,void>
PUBLIC	??$_Adl_verify_range@V?$_Vector_iterator@V?$_Vector_val@U?$_Simple_types@H@std@@@std@@@std@@V12@@std@@YAXABV?$_Vector_iterator@V?$_Vector_val@U?$_Simple_types@H@std@@@std@@@0@0@Z ; std::_Adl_verify_range<std::_Vector_iterator<std::_Vector_val<std::_Simple_types<int> > >,std::_Vector_iterator<std::_Vector_val<std::_Simple_types<int> > > >
PUBLIC	??$_Get_unwrapped@V?$_Vector_iterator@V?$_Vector_val@U?$_Simple_types@H@std@@@std@@@std@@$0A@@std@@YA@ABV?$_Vector_iterator@V?$_Vector_val@U?$_Simple_types@H@std@@@std@@@0@@Z ; std::_Get_unwrapped<std::_Vector_iterator<std::_Vector_val<std::_Simple_types<int> > >,0>
PUBLIC	??$_Range_construct_or_tidy@PAH@?$vector@HV?$allocator@H@std@@@std@@AAEXPAH0Uforward_iterator_tag@1@@Z ; std::vector<int,std::allocator<int> >::_Range_construct_or_tidy<int *>
PUBLIC	??$max_element@V?$_Vector_iterator@V?$_Vector_val@U?$_Simple_types@H@std@@@std@@@std@@U?$less@X@2@@std@@YA?AV?$_Vector_iterator@V?$_Vector_val@U?$_Simple_types@H@std@@@std@@@0@V10@0U?$less@X@0@@Z ; std::max_element<std::_Vector_iterator<std::_Vector_val<std::_Simple_types<int> > >,std::less<void> >
PUBLIC	??$_Find_unchecked@PAHH@std@@YAPAHQAH0ABH@Z	; std::_Find_unchecked<int *,int>
PUBLIC	??$_Seek_wrapped@V?$_Vector_iterator@V?$_Vector_val@U?$_Simple_types@H@std@@@std@@@std@@PAH$0A@@std@@YAXAAV?$_Vector_iterator@V?$_Vector_val@U?$_Simple_types@H@std@@@std@@@0@ABQAH@Z ; std::_Seek_wrapped<std::_Vector_iterator<std::_Vector_val<std::_Simple_types<int> > >,int *,0>
PUBLIC	??$accumulate@V?$_Vector_iterator@V?$_Vector_val@U?$_Simple_types@H@std@@@std@@@std@@_KU?$plus@X@2@@std@@YA_KV?$_Vector_iterator@V?$_Vector_val@U?$_Simple_types@H@std@@@std@@@0@0_KU?$plus@X@0@@Z ; std::accumulate<std::_Vector_iterator<std::_Vector_val<std::_Simple_types<int> > >,unsigned __int64,std::plus<void> >
PUBLIC	??$_Ptr_move_cat@HH@std@@YA?AU_Really_trivial_ptr_iterator_tag@0@ABQAH0@Z ; std::_Ptr_move_cat<int,int>
PUBLIC	??$_Move_unchecked1@PAHPAH@std@@YAPAHPAH00U_Trivially_copyable_ptr_iterator_tag@0@@Z ; std::_Move_unchecked1<int *,int *>
PUBLIC	??$_Allocate_manually_vector_aligned@U_Default_allocate_traits@std@@@std@@YAPAXI@Z ; std::_Allocate_manually_vector_aligned<std::_Default_allocate_traits>
PUBLIC	??$_Destroy_range1@V?$allocator@V?$vector@HV?$allocator@H@std@@@std@@@std@@@std@@YAXPAV?$vector@HV?$allocator@H@std@@@0@0AAV?$allocator@V?$vector@HV?$allocator@H@std@@@std@@@0@U?$integral_constant@_N$0A@@0@@Z ; std::_Destroy_range1<std::allocator<std::vector<int,std::allocator<int> > > >
PUBLIC	??$_Destroy_range1@V?$allocator@H@std@@@std@@YAXPAH0AAV?$allocator@H@0@U?$integral_constant@_N$00@0@@Z ; std::_Destroy_range1<std::allocator<int> >
PUBLIC	??$forward@U_Container_proxy@std@@@std@@YA$$QAU_Container_proxy@0@AAU10@@Z ; std::forward<std::_Container_proxy>
PUBLIC	??$_Get_size_of_n@$03@std@@YAII@Z		; std::_Get_size_of_n<4>
PUBLIC	??$forward@ABV?$allocator@H@std@@@std@@YAABV?$allocator@H@0@ABV10@@Z ; std::forward<std::allocator<int> const &>
PUBLIC	??$?0ABV?$allocator@H@std@@$$V@?$_Compressed_pair@V?$allocator@H@std@@V?$_Vector_val@U?$_Simple_types@H@std@@@2@$00@std@@QAE@U_One_then_variadic_args_t@1@ABV?$allocator@H@1@@Z ; std::_Compressed_pair<std::allocator<int>,std::_Vector_val<std::_Simple_types<int> >,1>::_Compressed_pair<std::allocator<int>,std::_Vector_val<std::_Simple_types<int> >,1><std::allocator<int> const &>
PUBLIC	??$_Adl_verify_range1@V?$_Vector_iterator@V?$_Vector_val@U?$_Simple_types@H@std@@@std@@@std@@V12@@std@@YAXABV?$_Vector_iterator@V?$_Vector_val@U?$_Simple_types@H@std@@@std@@@0@0U?$integral_constant@_N$00@0@@Z ; std::_Adl_verify_range1<std::_Vector_iterator<std::_Vector_val<std::_Simple_types<int> > >,std::_Vector_iterator<std::_Vector_val<std::_Simple_types<int> > > >
PUBLIC	??$distance@PAH@std@@YAHPAH0@Z			; std::distance<int *>
PUBLIC	??$_Ucopy@PAH@?$vector@HV?$allocator@H@std@@@std@@AAEPAHPAH00@Z ; std::vector<int,std::allocator<int> >::_Ucopy<int *>
PUBLIC	??$_Pass_fn@U?$less@X@std@@$0A@@std@@YA?AU?$less@X@0@U10@@Z ; std::_Pass_fn<std::less<void>,0>
PUBLIC	??$_Max_element_unchecked@PAHU?$less@X@std@@@std@@YAPAHPAH0U?$less@X@0@@Z ; std::_Max_element_unchecked<int *,std::less<void> >
PUBLIC	??$_Find_unchecked1@PAHH@std@@YAPAHPAHQAHABHU?$integral_constant@_N$0A@@0@@Z ; std::_Find_unchecked1<int *,int>
PUBLIC	??$?RAA_KAAH@?$plus@X@std@@QBE_KAA_KAAH@Z	; std::plus<void>::operator()<unsigned __int64 &,int &>
PUBLIC	??$_Copy_memmove@PAHPAH@std@@YAPAHPAH00@Z	; std::_Copy_memmove<int *,int *>
PUBLIC	??$_Unfancy@V?$vector@HV?$allocator@H@std@@@std@@@std@@YAPAV?$vector@HV?$allocator@H@std@@@0@PAV10@@Z ; std::_Unfancy<std::vector<int,std::allocator<int> > >
PUBLIC	??$destroy@V?$vector@HV?$allocator@H@std@@@std@@@?$_Default_allocator_traits@V?$allocator@V?$vector@HV?$allocator@H@std@@@std@@@std@@@std@@SAXAAV?$allocator@V?$vector@HV?$allocator@H@std@@@std@@@1@QAV?$vector@HV?$allocator@H@std@@@1@@Z ; std::_Default_allocator_traits<std::allocator<std::vector<int,std::allocator<int> > > >::destroy<std::vector<int,std::allocator<int> > >
PUBLIC	??$_Const_cast@$$CBH@std@@YA@PBH@Z		; std::_Const_cast<int const >
PUBLIC	??$_Distance1@PAH@std@@YAHPAH0Urandom_access_iterator_tag@0@@Z ; std::_Distance1<int *>
PUBLIC	??$_Uninitialized_copy@PAHPAHV?$allocator@H@std@@@std@@YAPAHQAH0PAHAAV?$allocator@H@0@@Z ; std::_Uninitialized_copy<int *,int *,std::allocator<int> >
PUBLIC	??$_Debug_lt_pred@AAU?$less@X@std@@AAHAAH@std@@YA_NAAU?$less@X@0@AAH1@Z ; std::_Debug_lt_pred<std::less<void> &,int &,int &>
PUBLIC	??$?RAAHAAH@?$less@X@std@@QBE_NAAH0@Z		; std::less<void>::operator()<int &,int &>
PUBLIC	??$_Get_unwrapped@H@std@@YAPAHQAH@Z		; std::_Get_unwrapped<int>
PUBLIC	??$_Idl_distance@PAHPAH@std@@YA@ABQAH0@Z	; std::_Idl_distance<int *,int *>
PUBLIC	??$_Idl_distance1@PAHPAH@std@@YAHABQAH0Urandom_access_iterator_tag@0@@Z ; std::_Idl_distance1<int *,int *>
PUBLIC	??$_Get_unwrapped_n@HH$0A@@std@@YAPAHQAHH@Z	; std::_Get_unwrapped_n<int,int,0>
PUBLIC	??$_Ptr_copy_cat@HH@std@@YA?AU_Really_trivial_ptr_iterator_tag@0@ABQAH0@Z ; std::_Ptr_copy_cat<int,int>
PUBLIC	??$_Uninitialized_copy_al_unchecked@HHV?$allocator@H@std@@@std@@YAPAHQAH00AAV?$allocator@H@0@U_Really_trivial_ptr_iterator_tag@0@U?$integral_constant@_N$00@0@@Z ; std::_Uninitialized_copy_al_unchecked<int,int,std::allocator<int> >
PUBLIC	??$_Seek_wrapped@H@std@@YAXAAPAHQAH@Z		; std::_Seek_wrapped<int>
PUBLIC	__JustMyCode_Default
PUBLIC	??_C@_0BB@FCMFBGOM@invalid?5argument@		; `string'
PUBLIC	??_C@_02DKCKIIND@?$CFs@				; `string'
PUBLIC	??_C@_1CG@JNLFBNGN@?$AA?$CC?$AAi?$AAn?$AAv?$AAa?$AAl?$AAi?$AAd?$AA?5?$AAa?$AAr?$AAg?$AAu?$AAm?$AAe@ ; `string'
PUBLIC	??_C@_0BJ@LFDBABJJ@ITERATOR?5LIST?5CORRUPTED?$CB@ ; `string'
PUBLIC	??_C@_0GM@FAFCIENC@c?3?2program?5files?5?$CIx86?$CJ?2microsof@ ; `string'
PUBLIC	??_C@_1NI@CLIPCEJM@?$AAc?$AA?3?$AA?2?$AAp?$AAr?$AAo?$AAg?$AAr?$AAa?$AAm?$AA?5?$AAf?$AAi?$AAl?$AAe@ ; `string'
PUBLIC	??_C@_1EE@KLDMFDFL@?$AAs?$AAt?$AAd?$AA?3?$AA?3?$AA_?$AAI?$AAt?$AAe?$AAr?$AAa?$AAt?$AAo?$AAr?$AA_@ ; `string'
PUBLIC	??_C@_1DG@PLBPCAEM@?$AA?$CC?$AAI?$AAT?$AAE?$AAR?$AAA?$AAT?$AAO?$AAR?$AA?5?$AAL?$AAI?$AAS?$AAT?$AA?5@ ; `string'
PUBLIC	?__LINE__Var@?0??_Adjust_manually_vector_aligned@std@@YAXAAPAXAAI@Z@4JA ; `std::_Adjust_manually_vector_aligned'::`1'::__LINE__Var
PUBLIC	??_C@_0GM@EMOPLGHB@c?3?2program?5files?5?$CIx86?$CJ?2microsof@ ; `string'
PUBLIC	??_C@_1NI@NGGEPBDP@?$AAc?$AA?3?$AA?2?$AAp?$AAr?$AAo?$AAg?$AAr?$AAa?$AAm?$AA?5?$AAf?$AAi?$AAl?$AAe@ ; `string'
PUBLIC	??_C@_1EK@NIFDJFDG@?$AAs?$AAt?$AAd?$AA?3?$AA?3?$AA_?$AAA?$AAd?$AAj?$AAu?$AAs?$AAt?$AA_?$AAm?$AAa@ ; `string'
PUBLIC	??_C@_0GL@ILDCNCK@c?3?2program?5files?5?$CIx86?$CJ?2microsof@ ; `string'
PUBLIC	?__LINE__Var@?0??_Maklocwcs@std@@YAPA_WPB_W@Z@4JA ; `std::_Maklocwcs'::`1'::__LINE__Var
PUBLIC	??_C@_0GL@ILPOCPIL@c?3?2program?5files?5?$CIx86?$CJ?2microsof@ ; `string'
PUBLIC	??_C@_01EEMJAFIK@?6@				; `string'
PUBLIC	??_C@_01MIFGBAGJ@?$CL@				; `string'
PUBLIC	??_C@_02MCBMIIIH@?5?6@				; `string'
PUBLIC	??_C@_01CLKCMJKC@?5@				; `string'
PUBLIC	??_C@_01IPJKGB@?$CD@				; `string'
PUBLIC	??_C@_0N@LPFKKEBD@?3AM?3am?3PM?3pm@		; `string'
PUBLIC	??_C@_0BO@PFKOHNJC@vector?5subscript?5out?5of?5range@ ; `string'
PUBLIC	??_C@_0GK@ECBJCIPN@c?3?2program?5files?5?$CIx86?$CJ?2microsof@ ; `string'
PUBLIC	??_C@_1NE@HDFPNDLK@?$AAc?$AA?3?$AA?2?$AAp?$AAr?$AAo?$AAg?$AAr?$AAa?$AAm?$AA?5?$AAf?$AAi?$AAl?$AAe@ ; `string'
PUBLIC	??_C@_1BCM@BMJMJMGN@?$AAs?$AAt?$AAd?$AA?3?$AA?3?$AAv?$AAe?$AAc?$AAt?$AAo?$AAr?$AA?$DM?$AAc?$AAl?$AAa@ ; `string'
PUBLIC	??_C@_1EA@LEKOKFNB@?$AA?$CC?$AAv?$AAe?$AAc?$AAt?$AAo?$AAr?$AA?5?$AAs?$AAu?$AAb?$AAs?$AAc?$AAr?$AAi@ ; `string'
PUBLIC	??_C@_1HC@HBCEAHKD@?$AAs?$AAt?$AAd?$AA?3?$AA?3?$AAv?$AAe?$AAc?$AAt?$AAo?$AAr?$AA?$DM?$AAi?$AAn?$AAt@ ; `string'
PUBLIC	??_C@_0CE@EAMOGAIE@vector?5erase?5iterator?5outside?5r@ ; `string'
PUBLIC	??_C@_1GG@CBMBAGEI@?$AAs?$AAt?$AAd?$AA?3?$AA?3?$AAv?$AAe?$AAc?$AAt?$AAo?$AAr?$AA?$DM?$AAi?$AAn?$AAt@ ; `string'
PUBLIC	??_C@_1EM@BEMPOGMM@?$AA?$CC?$AAv?$AAe?$AAc?$AAt?$AAo?$AAr?$AA?5?$AAe?$AAr?$AAa?$AAs?$AAe?$AA?5?$AAi@ ; `string'
PUBLIC	??_C@_0DE@CHADHGFF@can?8t?5dereference?5value?9initial@ ; `string'
PUBLIC	??_C@_1ME@LLCFNFIO@?$AAs?$AAt?$AAd?$AA?3?$AA?3?$AA_?$AAV?$AAe?$AAc?$AAt?$AAo?$AAr?$AA_?$AAc?$AAo@ ; `string'
PUBLIC	??_C@_1GM@FNBFNBEL@?$AA?$CC?$AAc?$AAa?$AAn?$AA?8?$AAt?$AA?5?$AAd?$AAe?$AAr?$AAe?$AAf?$AAe?$AAr?$AAe@ ; `string'
PUBLIC	??_C@_0CP@MDHADBHN@can?8t?5dereference?5out?5of?5range?5@ ; `string'
PUBLIC	??_C@_1GC@JDCKOLAC@?$AA?$CC?$AAc?$AAa?$AAn?$AA?8?$AAt?$AA?5?$AAd?$AAe?$AAr?$AAe?$AAf?$AAe?$AAr?$AAe@ ; `string'
PUBLIC	??_C@_1BK@MHIKGOKE@?$AA?3?$AAA?$AAM?$AA?3?$AAa?$AAm?$AA?3?$AAP?$AAM?$AA?3?$AAp?$AAm@ ; `string'
PUBLIC	??_C@_1EO@GFNCMDLA@?$AAs?$AAt?$AAd?$AA?3?$AA?3?$AA_?$AAA?$AAl?$AAl?$AAo?$AAc?$AAa?$AAt?$AAe?$AA_@ ; `string'
PUBLIC	??_C@_0BD@OLBABOEK@vector?$DMT?$DO?5too?5long@	; `string'
PUBLIC	??_C@_1CG@LJCPDKEJ@?$AAs?$AAt?$AAd?$AA?3?$AA?3?$AA_?$AAV?$AAe?$AAr?$AAi?$AAf?$AAy?$AA_?$AAr?$AAa@ ; `string'
PUBLIC	??_C@_0DI@PBEELKIF@vector?5iterators?5in?5range?5are?5f@ ; `string'
PUBLIC	??_C@_1HE@KBMFDAFB@?$AA?$CC?$AAv?$AAe?$AAc?$AAt?$AAo?$AAr?$AA?5?$AAi?$AAt?$AAe?$AAr?$AAa?$AAt?$AAo@ ; `string'
PUBLIC	??_C@_0CB@LIAHLBAO@vector?5iterator?5range?5transpose@ ; `string'
PUBLIC	??_C@_1EG@ODKBEHFN@?$AA?$CC?$AAv?$AAe?$AAc?$AAt?$AAo?$AAr?$AA?5?$AAi?$AAt?$AAe?$AAr?$AAa?$AAt?$AAo@ ; `string'
PUBLIC	??_C@_0BD@FEEMDEPI@invalid?5comparator@		; `string'
PUBLIC	??_C@_1CI@JONCLBEJ@?$AAs?$AAt?$AAd?$AA?3?$AA?3?$AA_?$AAD?$AAe?$AAb?$AAu?$AAg?$AA_?$AAl?$AAt?$AA_@ ; `string'
PUBLIC	??_C@_1CK@NDNHPKPI@?$AA?$CC?$AAi?$AAn?$AAv?$AAa?$AAl?$AAi?$AAd?$AA?5?$AAc?$AAo?$AAm?$AAp?$AAa?$AAr@ ; `string'
PUBLIC	__real@3f800000
PUBLIC	__xmm@41f00000000000000000000000000000
EXTRN	??2@YAPAXI@Z:PROC				; operator new
EXTRN	??3@YAXPAXI@Z:PROC				; operator delete
EXTRN	__imp___invalid_parameter:PROC
EXTRN	__imp___calloc_dbg:PROC
EXTRN	__imp___CrtDbgReport:PROC
EXTRN	__imp_??0_Lockit@std@@QAE@H@Z:PROC
EXTRN	__imp_??1_Lockit@std@@QAE@XZ:PROC
EXTRN	_abs:PROC
EXTRN	_memcpy:PROC
EXTRN	_memmove:PROC
EXTRN	__imp__wcslen:PROC
EXTRN	_strlen:PROC
EXTRN	?uncaught_exception@std@@YA_NXZ:PROC		; std::uncaught_exception
EXTRN	?_Xbad_alloc@std@@YAXXZ:PROC			; std::_Xbad_alloc
EXTRN	?_Xlength_error@std@@YAXPBD@Z:PROC		; std::_Xlength_error
EXTRN	__Mbrtowc:PROC
EXTRN	__imp_?_Getcvt@_Locinfo@std@@QBE?AU_Cvtvec@@XZ:PROC
EXTRN	__imp_?_Getdays@_Locinfo@std@@QBEPBDXZ:PROC
EXTRN	__imp_?_Getmonths@_Locinfo@std@@QBEPBDXZ:PROC
EXTRN	__imp_?_W_Getdays@_Locinfo@std@@QBEPBGXZ:PROC
EXTRN	__imp_?_W_Getmonths@_Locinfo@std@@QBEPBGXZ:PROC
EXTRN	__imp_?good@ios_base@std@@QBE_NXZ:PROC
EXTRN	__imp_?flags@ios_base@std@@QBEHXZ:PROC
EXTRN	__imp_?setf@ios_base@std@@QAEHHH@Z:PROC
EXTRN	__imp_?width@ios_base@std@@QBE_JXZ:PROC
EXTRN	__imp_?width@ios_base@std@@QAE_J_J@Z:PROC
EXTRN	__imp_?sputc@?$basic_streambuf@DU?$char_traits@D@std@@@std@@QAEHD@Z:PROC
EXTRN	__imp_?sputn@?$basic_streambuf@DU?$char_traits@D@std@@@std@@QAE_JPBD_J@Z:PROC
EXTRN	__imp_?setstate@?$basic_ios@DU?$char_traits@D@std@@@std@@QAEXH_N@Z:PROC
EXTRN	__imp_?tie@?$basic_ios@DU?$char_traits@D@std@@@std@@QBEPAV?$basic_ostream@DU?$char_traits@D@std@@@2@XZ:PROC
EXTRN	__imp_?rdbuf@?$basic_ios@DU?$char_traits@D@std@@@std@@QBEPAV?$basic_streambuf@DU?$char_traits@D@std@@@2@XZ:PROC
EXTRN	__imp_?fill@?$basic_ios@DU?$char_traits@D@std@@@std@@QBEDXZ:PROC
EXTRN	__imp_?_Osfx@?$basic_ostream@DU?$char_traits@D@std@@@std@@QAEXXZ:PROC
EXTRN	__imp_??6?$basic_ostream@DU?$char_traits@D@std@@@std@@QAEAAV01@P6AAAVios_base@1@AAV21@@Z@Z:PROC
EXTRN	__imp_??6?$basic_ostream@DU?$char_traits@D@std@@@std@@QAEAAV01@H@Z:PROC
EXTRN	__imp_??6?$basic_ostream@DU?$char_traits@D@std@@@std@@QAEAAV01@_K@Z:PROC
EXTRN	__imp_??6?$basic_ostream@DU?$char_traits@D@std@@@std@@QAEAAV01@M@Z:PROC
EXTRN	__imp_?flush@?$basic_ostream@DU?$char_traits@D@std@@@std@@QAEAAV12@XZ:PROC
EXTRN	?setprecision@std@@YA?AU?$_Smanip@_J@1@_J@Z:PROC ; std::setprecision
EXTRN	@_RTC_CheckStackVars@8:PROC
EXTRN	@__CheckForDebuggerJustMyCode@4:PROC
EXTRN	@__security_check_cookie@4:PROC
EXTRN	__CxxThrowException@8:PROC
EXTRN	__RTC_CheckEsp:PROC
EXTRN	__RTC_InitBase:PROC
EXTRN	__RTC_Shutdown:PROC
EXTRN	___CxxFrameHandler3:PROC
EXTRN	_memset:PROC
EXTRN	__imp_?cout@std@@3V?$basic_ostream@DU?$char_traits@D@std@@@1@A:BYTE
EXTRN	___security_cookie:DWORD
EXTRN	__fltused:DWORD
;	COMDAT __xmm@41f00000000000000000000000000000
CONST	SEGMENT
__xmm@41f00000000000000000000000000000 DB 00H, 00H, 00H, 00H, 00H, 00H, 00H
	DB	00H, 00H, 00H, 00H, 00H, 00H, 00H, 0f0H, 'A'
CONST	ENDS
;	COMDAT __real@3f800000
CONST	SEGMENT
__real@3f800000 DD 03f800000r			; 1
CONST	ENDS
;	COMDAT rtc$TMZ
rtc$TMZ	SEGMENT
__RTC_Shutdown.rtc$TMZ DD FLAT:__RTC_Shutdown
rtc$TMZ	ENDS
;	COMDAT rtc$IMZ
rtc$IMZ	SEGMENT
__RTC_InitBase.rtc$IMZ DD FLAT:__RTC_InitBase
rtc$IMZ	ENDS
;	COMDAT ??_C@_1CK@NDNHPKPI@?$AA?$CC?$AAi?$AAn?$AAv?$AAa?$AAl?$AAi?$AAd?$AA?5?$AAc?$AAo?$AAm?$AAp?$AAa?$AAr@
CONST	SEGMENT
??_C@_1CK@NDNHPKPI@?$AA?$CC?$AAi?$AAn?$AAv?$AAa?$AAl?$AAi?$AAd?$AA?5?$AAc?$AAo?$AAm?$AAp?$AAa?$AAr@ DB '"'
	DB	00H, 'i', 00H, 'n', 00H, 'v', 00H, 'a', 00H, 'l', 00H, 'i', 00H
	DB	'd', 00H, ' ', 00H, 'c', 00H, 'o', 00H, 'm', 00H, 'p', 00H, 'a'
	DB	00H, 'r', 00H, 'a', 00H, 't', 00H, 'o', 00H, 'r', 00H, '"', 00H
	DB	00H, 00H					; `string'
CONST	ENDS
;	COMDAT ??_C@_1CI@JONCLBEJ@?$AAs?$AAt?$AAd?$AA?3?$AA?3?$AA_?$AAD?$AAe?$AAb?$AAu?$AAg?$AA_?$AAl?$AAt?$AA_@
CONST	SEGMENT
??_C@_1CI@JONCLBEJ@?$AAs?$AAt?$AAd?$AA?3?$AA?3?$AA_?$AAD?$AAe?$AAb?$AAu?$AAg?$AA_?$AAl?$AAt?$AA_@ DB 's'
	DB	00H, 't', 00H, 'd', 00H, ':', 00H, ':', 00H, '_', 00H, 'D', 00H
	DB	'e', 00H, 'b', 00H, 'u', 00H, 'g', 00H, '_', 00H, 'l', 00H, 't'
	DB	00H, '_', 00H, 'p', 00H, 'r', 00H, 'e', 00H, 'd', 00H, 00H, 00H ; `string'
CONST	ENDS
;	COMDAT ??_C@_0BD@FEEMDEPI@invalid?5comparator@
CONST	SEGMENT
??_C@_0BD@FEEMDEPI@invalid?5comparator@ DB 'invalid comparator', 00H ; `string'
CONST	ENDS
;	COMDAT ??_C@_1EG@ODKBEHFN@?$AA?$CC?$AAv?$AAe?$AAc?$AAt?$AAo?$AAr?$AA?5?$AAi?$AAt?$AAe?$AAr?$AAa?$AAt?$AAo@
CONST	SEGMENT
??_C@_1EG@ODKBEHFN@?$AA?$CC?$AAv?$AAe?$AAc?$AAt?$AAo?$AAr?$AA?5?$AAi?$AAt?$AAe?$AAr?$AAa?$AAt?$AAo@ DB '"'
	DB	00H, 'v', 00H, 'e', 00H, 'c', 00H, 't', 00H, 'o', 00H, 'r', 00H
	DB	' ', 00H, 'i', 00H, 't', 00H, 'e', 00H, 'r', 00H, 'a', 00H, 't'
	DB	00H, 'o', 00H, 'r', 00H, ' ', 00H, 'r', 00H, 'a', 00H, 'n', 00H
	DB	'g', 00H, 'e', 00H, ' ', 00H, 't', 00H, 'r', 00H, 'a', 00H, 'n'
	DB	00H, 's', 00H, 'p', 00H, 'o', 00H, 's', 00H, 'e', 00H, 'd', 00H
	DB	'"', 00H, 00H, 00H				; `string'
CONST	ENDS
;	COMDAT ??_C@_0CB@LIAHLBAO@vector?5iterator?5range?5transpose@
CONST	SEGMENT
??_C@_0CB@LIAHLBAO@vector?5iterator?5range?5transpose@ DB 'vector iterato'
	DB	'r range transposed', 00H			; `string'
CONST	ENDS
;	COMDAT ??_C@_1HE@KBMFDAFB@?$AA?$CC?$AAv?$AAe?$AAc?$AAt?$AAo?$AAr?$AA?5?$AAi?$AAt?$AAe?$AAr?$AAa?$AAt?$AAo@
CONST	SEGMENT
??_C@_1HE@KBMFDAFB@?$AA?$CC?$AAv?$AAe?$AAc?$AAt?$AAo?$AAr?$AA?5?$AAi?$AAt?$AAe?$AAr?$AAa?$AAt?$AAo@ DB '"'
	DB	00H, 'v', 00H, 'e', 00H, 'c', 00H, 't', 00H, 'o', 00H, 'r', 00H
	DB	' ', 00H, 'i', 00H, 't', 00H, 'e', 00H, 'r', 00H, 'a', 00H, 't'
	DB	00H, 'o', 00H, 'r', 00H, 's', 00H, ' ', 00H, 'i', 00H, 'n', 00H
	DB	' ', 00H, 'r', 00H, 'a', 00H, 'n', 00H, 'g', 00H, 'e', 00H, ' '
	DB	00H, 'a', 00H, 'r', 00H, 'e', 00H, ' ', 00H, 'f', 00H, 'r', 00H
	DB	'o', 00H, 'm', 00H, ' ', 00H, 'd', 00H, 'i', 00H, 'f', 00H, 'f'
	DB	00H, 'e', 00H, 'r', 00H, 'e', 00H, 'n', 00H, 't', 00H, ' ', 00H
	DB	'c', 00H, 'o', 00H, 'n', 00H, 't', 00H, 'a', 00H, 'i', 00H, 'n'
	DB	00H, 'e', 00H, 'r', 00H, 's', 00H, '"', 00H, 00H, 00H ; `string'
CONST	ENDS
;	COMDAT ??_C@_0DI@PBEELKIF@vector?5iterators?5in?5range?5are?5f@
CONST	SEGMENT
??_C@_0DI@PBEELKIF@vector?5iterators?5in?5range?5are?5f@ DB 'vector itera'
	DB	'tors in range are from different containers', 00H ; `string'
CONST	ENDS
;	COMDAT ??_C@_1CG@LJCPDKEJ@?$AAs?$AAt?$AAd?$AA?3?$AA?3?$AA_?$AAV?$AAe?$AAr?$AAi?$AAf?$AAy?$AA_?$AAr?$AAa@
CONST	SEGMENT
??_C@_1CG@LJCPDKEJ@?$AAs?$AAt?$AAd?$AA?3?$AA?3?$AA_?$AAV?$AAe?$AAr?$AAi?$AAf?$AAy?$AA_?$AAr?$AAa@ DB 's'
	DB	00H, 't', 00H, 'd', 00H, ':', 00H, ':', 00H, '_', 00H, 'V', 00H
	DB	'e', 00H, 'r', 00H, 'i', 00H, 'f', 00H, 'y', 00H, '_', 00H, 'r'
	DB	00H, 'a', 00H, 'n', 00H, 'g', 00H, 'e', 00H, 00H, 00H ; `string'
CONST	ENDS
;	COMDAT ??_C@_0BD@OLBABOEK@vector?$DMT?$DO?5too?5long@
CONST	SEGMENT
??_C@_0BD@OLBABOEK@vector?$DMT?$DO?5too?5long@ DB 'vector<T> too long', 00H ; `string'
CONST	ENDS
;	COMDAT ??_C@_1EO@GFNCMDLA@?$AAs?$AAt?$AAd?$AA?3?$AA?3?$AA_?$AAA?$AAl?$AAl?$AAo?$AAc?$AAa?$AAt?$AAe?$AA_@
CONST	SEGMENT
??_C@_1EO@GFNCMDLA@?$AAs?$AAt?$AAd?$AA?3?$AA?3?$AA_?$AAA?$AAl?$AAl?$AAo?$AAc?$AAa?$AAt?$AAe?$AA_@ DB 's'
	DB	00H, 't', 00H, 'd', 00H, ':', 00H, ':', 00H, '_', 00H, 'A', 00H
	DB	'l', 00H, 'l', 00H, 'o', 00H, 'c', 00H, 'a', 00H, 't', 00H, 'e'
	DB	00H, '_', 00H, 'm', 00H, 'a', 00H, 'n', 00H, 'u', 00H, 'a', 00H
	DB	'l', 00H, 'l', 00H, 'y', 00H, '_', 00H, 'v', 00H, 'e', 00H, 'c'
	DB	00H, 't', 00H, 'o', 00H, 'r', 00H, '_', 00H, 'a', 00H, 'l', 00H
	DB	'i', 00H, 'g', 00H, 'n', 00H, 'e', 00H, 'd', 00H, 00H, 00H ; `string'
CONST	ENDS
;	COMDAT ??_C@_1BK@MHIKGOKE@?$AA?3?$AAA?$AAM?$AA?3?$AAa?$AAm?$AA?3?$AAP?$AAM?$AA?3?$AAp?$AAm@
CONST	SEGMENT
??_C@_1BK@MHIKGOKE@?$AA?3?$AAA?$AAM?$AA?3?$AAa?$AAm?$AA?3?$AAP?$AAM?$AA?3?$AAp?$AAm@ DB ':'
	DB	00H, 'A', 00H, 'M', 00H, ':', 00H, 'a', 00H, 'm', 00H, ':', 00H
	DB	'P', 00H, 'M', 00H, ':', 00H, 'p', 00H, 'm', 00H, 00H, 00H ; `string'
CONST	ENDS
;	COMDAT ??_C@_1GC@JDCKOLAC@?$AA?$CC?$AAc?$AAa?$AAn?$AA?8?$AAt?$AA?5?$AAd?$AAe?$AAr?$AAe?$AAf?$AAe?$AAr?$AAe@
CONST	SEGMENT
??_C@_1GC@JDCKOLAC@?$AA?$CC?$AAc?$AAa?$AAn?$AA?8?$AAt?$AA?5?$AAd?$AAe?$AAr?$AAe?$AAf?$AAe?$AAr?$AAe@ DB '"'
	DB	00H, 'c', 00H, 'a', 00H, 'n', 00H, '''', 00H, 't', 00H, ' ', 00H
	DB	'd', 00H, 'e', 00H, 'r', 00H, 'e', 00H, 'f', 00H, 'e', 00H, 'r'
	DB	00H, 'e', 00H, 'n', 00H, 'c', 00H, 'e', 00H, ' ', 00H, 'o', 00H
	DB	'u', 00H, 't', 00H, ' ', 00H, 'o', 00H, 'f', 00H, ' ', 00H, 'r'
	DB	00H, 'a', 00H, 'n', 00H, 'g', 00H, 'e', 00H, ' ', 00H, 'v', 00H
	DB	'e', 00H, 'c', 00H, 't', 00H, 'o', 00H, 'r', 00H, ' ', 00H, 'i'
	DB	00H, 't', 00H, 'e', 00H, 'r', 00H, 'a', 00H, 't', 00H, 'o', 00H
	DB	'r', 00H, '"', 00H, 00H, 00H			; `string'
CONST	ENDS
;	COMDAT ??_C@_0CP@MDHADBHN@can?8t?5dereference?5out?5of?5range?5@
CONST	SEGMENT
??_C@_0CP@MDHADBHN@can?8t?5dereference?5out?5of?5range?5@ DB 'can''t dere'
	DB	'ference out of range vector iterator', 00H	; `string'
CONST	ENDS
;	COMDAT ??_C@_1GM@FNBFNBEL@?$AA?$CC?$AAc?$AAa?$AAn?$AA?8?$AAt?$AA?5?$AAd?$AAe?$AAr?$AAe?$AAf?$AAe?$AAr?$AAe@
CONST	SEGMENT
??_C@_1GM@FNBFNBEL@?$AA?$CC?$AAc?$AAa?$AAn?$AA?8?$AAt?$AA?5?$AAd?$AAe?$AAr?$AAe?$AAf?$AAe?$AAr?$AAe@ DB '"'
	DB	00H, 'c', 00H, 'a', 00H, 'n', 00H, '''', 00H, 't', 00H, ' ', 00H
	DB	'd', 00H, 'e', 00H, 'r', 00H, 'e', 00H, 'f', 00H, 'e', 00H, 'r'
	DB	00H, 'e', 00H, 'n', 00H, 'c', 00H, 'e', 00H, ' ', 00H, 'v', 00H
	DB	'a', 00H, 'l', 00H, 'u', 00H, 'e', 00H, '-', 00H, 'i', 00H, 'n'
	DB	00H, 'i', 00H, 't', 00H, 'i', 00H, 'a', 00H, 'l', 00H, 'i', 00H
	DB	'z', 00H, 'e', 00H, 'd', 00H, ' ', 00H, 'v', 00H, 'e', 00H, 'c'
	DB	00H, 't', 00H, 'o', 00H, 'r', 00H, ' ', 00H, 'i', 00H, 't', 00H
	DB	'e', 00H, 'r', 00H, 'a', 00H, 't', 00H, 'o', 00H, 'r', 00H, '"'
	DB	00H, 00H, 00H				; `string'
CONST	ENDS
;	COMDAT ??_C@_1ME@LLCFNFIO@?$AAs?$AAt?$AAd?$AA?3?$AA?3?$AA_?$AAV?$AAe?$AAc?$AAt?$AAo?$AAr?$AA_?$AAc?$AAo@
CONST	SEGMENT
??_C@_1ME@LLCFNFIO@?$AAs?$AAt?$AAd?$AA?3?$AA?3?$AA_?$AAV?$AAe?$AAc?$AAt?$AAo?$AAr?$AA_?$AAc?$AAo@ DB 's'
	DB	00H, 't', 00H, 'd', 00H, ':', 00H, ':', 00H, '_', 00H, 'V', 00H
	DB	'e', 00H, 'c', 00H, 't', 00H, 'o', 00H, 'r', 00H, '_', 00H, 'c'
	DB	00H, 'o', 00H, 'n', 00H, 's', 00H, 't', 00H, '_', 00H, 'i', 00H
	DB	't', 00H, 'e', 00H, 'r', 00H, 'a', 00H, 't', 00H, 'o', 00H, 'r'
	DB	00H, '<', 00H, 'c', 00H, 'l', 00H, 'a', 00H, 's', 00H, 's', 00H
	DB	' ', 00H, 's', 00H, 't', 00H, 'd', 00H, ':', 00H, ':', 00H, '_'
	DB	00H, 'V', 00H, 'e', 00H, 'c', 00H, 't', 00H, 'o', 00H, 'r', 00H
	DB	'_', 00H, 'v', 00H, 'a', 00H, 'l', 00H, '<', 00H, 's', 00H, 't'
	DB	00H, 'r', 00H, 'u', 00H, 'c', 00H, 't', 00H, ' ', 00H, 's', 00H
	DB	't', 00H, 'd', 00H, ':', 00H, ':', 00H, '_', 00H, 'S', 00H, 'i'
	DB	00H, 'm', 00H, 'p', 00H, 'l', 00H, 'e', 00H, '_', 00H, 't', 00H
	DB	'y', 00H, 'p', 00H, 'e', 00H, 's', 00H, '<', 00H, 'i', 00H, 'n'
	DB	00H, 't', 00H, '>', 00H, ' ', 00H, '>', 00H, ' ', 00H, '>', 00H
	DB	':', 00H, ':', 00H, 'o', 00H, 'p', 00H, 'e', 00H, 'r', 00H, 'a'
	DB	00H, 't', 00H, 'o', 00H, 'r', 00H, ' ', 00H, '*', 00H, 00H, 00H ; `string'
CONST	ENDS
;	COMDAT ??_C@_0DE@CHADHGFF@can?8t?5dereference?5value?9initial@
CONST	SEGMENT
??_C@_0DE@CHADHGFF@can?8t?5dereference?5value?9initial@ DB 'can''t derefe'
	DB	'rence value-initialized vector iterator', 00H ; `string'
CONST	ENDS
;	COMDAT ??_C@_1EM@BEMPOGMM@?$AA?$CC?$AAv?$AAe?$AAc?$AAt?$AAo?$AAr?$AA?5?$AAe?$AAr?$AAa?$AAs?$AAe?$AA?5?$AAi@
CONST	SEGMENT
??_C@_1EM@BEMPOGMM@?$AA?$CC?$AAv?$AAe?$AAc?$AAt?$AAo?$AAr?$AA?5?$AAe?$AAr?$AAa?$AAs?$AAe?$AA?5?$AAi@ DB '"'
	DB	00H, 'v', 00H, 'e', 00H, 'c', 00H, 't', 00H, 'o', 00H, 'r', 00H
	DB	' ', 00H, 'e', 00H, 'r', 00H, 'a', 00H, 's', 00H, 'e', 00H, ' '
	DB	00H, 'i', 00H, 't', 00H, 'e', 00H, 'r', 00H, 'a', 00H, 't', 00H
	DB	'o', 00H, 'r', 00H, ' ', 00H, 'o', 00H, 'u', 00H, 't', 00H, 's'
	DB	00H, 'i', 00H, 'd', 00H, 'e', 00H, ' ', 00H, 'r', 00H, 'a', 00H
	DB	'n', 00H, 'g', 00H, 'e', 00H, '"', 00H, 00H, 00H ; `string'
CONST	ENDS
;	COMDAT ??_C@_1GG@CBMBAGEI@?$AAs?$AAt?$AAd?$AA?3?$AA?3?$AAv?$AAe?$AAc?$AAt?$AAo?$AAr?$AA?$DM?$AAi?$AAn?$AAt@
CONST	SEGMENT
??_C@_1GG@CBMBAGEI@?$AAs?$AAt?$AAd?$AA?3?$AA?3?$AAv?$AAe?$AAc?$AAt?$AAo?$AAr?$AA?$DM?$AAi?$AAn?$AAt@ DB 's'
	DB	00H, 't', 00H, 'd', 00H, ':', 00H, ':', 00H, 'v', 00H, 'e', 00H
	DB	'c', 00H, 't', 00H, 'o', 00H, 'r', 00H, '<', 00H, 'i', 00H, 'n'
	DB	00H, 't', 00H, ',', 00H, 'c', 00H, 'l', 00H, 'a', 00H, 's', 00H
	DB	's', 00H, ' ', 00H, 's', 00H, 't', 00H, 'd', 00H, ':', 00H, ':'
	DB	00H, 'a', 00H, 'l', 00H, 'l', 00H, 'o', 00H, 'c', 00H, 'a', 00H
	DB	't', 00H, 'o', 00H, 'r', 00H, '<', 00H, 'i', 00H, 'n', 00H, 't'
	DB	00H, '>', 00H, ' ', 00H, '>', 00H, ':', 00H, ':', 00H, 'e', 00H
	DB	'r', 00H, 'a', 00H, 's', 00H, 'e', 00H, 00H, 00H ; `string'
CONST	ENDS
;	COMDAT ??_C@_0CE@EAMOGAIE@vector?5erase?5iterator?5outside?5r@
CONST	SEGMENT
??_C@_0CE@EAMOGAIE@vector?5erase?5iterator?5outside?5r@ DB 'vector erase '
	DB	'iterator outside range', 00H		; `string'
CONST	ENDS
;	COMDAT ??_C@_1HC@HBCEAHKD@?$AAs?$AAt?$AAd?$AA?3?$AA?3?$AAv?$AAe?$AAc?$AAt?$AAo?$AAr?$AA?$DM?$AAi?$AAn?$AAt@
CONST	SEGMENT
??_C@_1HC@HBCEAHKD@?$AAs?$AAt?$AAd?$AA?3?$AA?3?$AAv?$AAe?$AAc?$AAt?$AAo?$AAr?$AA?$DM?$AAi?$AAn?$AAt@ DB 's'
	DB	00H, 't', 00H, 'd', 00H, ':', 00H, ':', 00H, 'v', 00H, 'e', 00H
	DB	'c', 00H, 't', 00H, 'o', 00H, 'r', 00H, '<', 00H, 'i', 00H, 'n'
	DB	00H, 't', 00H, ',', 00H, 'c', 00H, 'l', 00H, 'a', 00H, 's', 00H
	DB	's', 00H, ' ', 00H, 's', 00H, 't', 00H, 'd', 00H, ':', 00H, ':'
	DB	00H, 'a', 00H, 'l', 00H, 'l', 00H, 'o', 00H, 'c', 00H, 'a', 00H
	DB	't', 00H, 'o', 00H, 'r', 00H, '<', 00H, 'i', 00H, 'n', 00H, 't'
	DB	00H, '>', 00H, ' ', 00H, '>', 00H, ':', 00H, ':', 00H, 'o', 00H
	DB	'p', 00H, 'e', 00H, 'r', 00H, 'a', 00H, 't', 00H, 'o', 00H, 'r'
	DB	00H, ' ', 00H, '[', 00H, ']', 00H, 00H, 00H	; `string'
CONST	ENDS
;	COMDAT ??_C@_1EA@LEKOKFNB@?$AA?$CC?$AAv?$AAe?$AAc?$AAt?$AAo?$AAr?$AA?5?$AAs?$AAu?$AAb?$AAs?$AAc?$AAr?$AAi@
CONST	SEGMENT
??_C@_1EA@LEKOKFNB@?$AA?$CC?$AAv?$AAe?$AAc?$AAt?$AAo?$AAr?$AA?5?$AAs?$AAu?$AAb?$AAs?$AAc?$AAr?$AAi@ DB '"'
	DB	00H, 'v', 00H, 'e', 00H, 'c', 00H, 't', 00H, 'o', 00H, 'r', 00H
	DB	' ', 00H, 's', 00H, 'u', 00H, 'b', 00H, 's', 00H, 'c', 00H, 'r'
	DB	00H, 'i', 00H, 'p', 00H, 't', 00H, ' ', 00H, 'o', 00H, 'u', 00H
	DB	't', 00H, ' ', 00H, 'o', 00H, 'f', 00H, ' ', 00H, 'r', 00H, 'a'
	DB	00H, 'n', 00H, 'g', 00H, 'e', 00H, '"', 00H, 00H, 00H ; `string'
CONST	ENDS
;	COMDAT ??_C@_1BCM@BMJMJMGN@?$AAs?$AAt?$AAd?$AA?3?$AA?3?$AAv?$AAe?$AAc?$AAt?$AAo?$AAr?$AA?$DM?$AAc?$AAl?$AAa@
CONST	SEGMENT
??_C@_1BCM@BMJMJMGN@?$AAs?$AAt?$AAd?$AA?3?$AA?3?$AAv?$AAe?$AAc?$AAt?$AAo?$AAr?$AA?$DM?$AAc?$AAl?$AAa@ DB 's'
	DB	00H, 't', 00H, 'd', 00H, ':', 00H, ':', 00H, 'v', 00H, 'e', 00H
	DB	'c', 00H, 't', 00H, 'o', 00H, 'r', 00H, '<', 00H, 'c', 00H, 'l'
	DB	00H, 'a', 00H, 's', 00H, 's', 00H, ' ', 00H, 's', 00H, 't', 00H
	DB	'd', 00H, ':', 00H, ':', 00H, 'v', 00H, 'e', 00H, 'c', 00H, 't'
	DB	00H, 'o', 00H, 'r', 00H, '<', 00H, 'i', 00H, 'n', 00H, 't', 00H
	DB	',', 00H, 'c', 00H, 'l', 00H, 'a', 00H, 's', 00H, 's', 00H, ' '
	DB	00H, 's', 00H, 't', 00H, 'd', 00H, ':', 00H, ':', 00H, 'a', 00H
	DB	'l', 00H, 'l', 00H, 'o', 00H, 'c', 00H, 'a', 00H, 't', 00H, 'o'
	DB	00H, 'r', 00H, '<', 00H, 'i', 00H, 'n', 00H, 't', 00H, '>', 00H
	DB	' ', 00H, '>', 00H, ',', 00H, 'c', 00H, 'l', 00H, 'a', 00H, 's'
	DB	00H, 's', 00H, ' ', 00H, 's', 00H, 't', 00H, 'd', 00H, ':', 00H
	DB	':', 00H, 'a', 00H, 'l', 00H, 'l', 00H, 'o', 00H, 'c', 00H, 'a'
	DB	00H, 't', 00H, 'o', 00H, 'r', 00H, '<', 00H, 'c', 00H, 'l', 00H
	DB	'a', 00H, 's', 00H, 's', 00H, ' ', 00H, 's', 00H, 't', 00H, 'd'
	DB	00H, ':', 00H, ':', 00H, 'v', 00H, 'e', 00H, 'c', 00H, 't', 00H
	DB	'o', 00H, 'r', 00H, '<', 00H, 'i', 00H, 'n', 00H, 't', 00H, ','
	DB	00H, 'c', 00H, 'l', 00H, 'a', 00H, 's', 00H, 's', 00H, ' ', 00H
	DB	's', 00H, 't', 00H, 'd', 00H, ':', 00H, ':', 00H, 'a', 00H, 'l'
	DB	00H, 'l', 00H, 'o', 00H, 'c', 00H, 'a', 00H, 't', 00H, 'o', 00H
	DB	'r', 00H, '<', 00H, 'i', 00H, 'n', 00H, 't', 00H, '>', 00H, ' '
	DB	00H, '>', 00H, ' ', 00H, '>', 00H, ' ', 00H, '>', 00H, ':', 00H
	DB	':', 00H, 'o', 00H, 'p', 00H, 'e', 00H, 'r', 00H, 'a', 00H, 't'
	DB	00H, 'o', 00H, 'r', 00H, ' ', 00H, '[', 00H, ']', 00H, 00H, 00H ; `string'
CONST	ENDS
;	COMDAT ??_C@_1NE@HDFPNDLK@?$AAc?$AA?3?$AA?2?$AAp?$AAr?$AAo?$AAg?$AAr?$AAa?$AAm?$AA?5?$AAf?$AAi?$AAl?$AAe@
CONST	SEGMENT
??_C@_1NE@HDFPNDLK@?$AAc?$AA?3?$AA?2?$AAp?$AAr?$AAo?$AAg?$AAr?$AAa?$AAm?$AA?5?$AAf?$AAi?$AAl?$AAe@ DB 'c'
	DB	00H, ':', 00H, '\', 00H, 'p', 00H, 'r', 00H, 'o', 00H, 'g', 00H
	DB	'r', 00H, 'a', 00H, 'm', 00H, ' ', 00H, 'f', 00H, 'i', 00H, 'l'
	DB	00H, 'e', 00H, 's', 00H, ' ', 00H, '(', 00H, 'x', 00H, '8', 00H
	DB	'6', 00H, ')', 00H, '\', 00H, 'm', 00H, 'i', 00H, 'c', 00H, 'r'
	DB	00H, 'o', 00H, 's', 00H, 'o', 00H, 'f', 00H, 't', 00H, ' ', 00H
	DB	'v', 00H, 'i', 00H, 's', 00H, 'u', 00H, 'a', 00H, 'l', 00H, ' '
	DB	00H, 's', 00H, 't', 00H, 'u', 00H, 'd', 00H, 'i', 00H, 'o', 00H
	DB	'\', 00H, '2', 00H, '0', 00H, '1', 00H, '7', 00H, '\', 00H, 'p'
	DB	00H, 'r', 00H, 'o', 00H, 'f', 00H, 'e', 00H, 's', 00H, 's', 00H
	DB	'i', 00H, 'o', 00H, 'n', 00H, 'a', 00H, 'l', 00H, '\', 00H, 'v'
	DB	00H, 'c', 00H, '\', 00H, 't', 00H, 'o', 00H, 'o', 00H, 'l', 00H
	DB	's', 00H, '\', 00H, 'm', 00H, 's', 00H, 'v', 00H, 'c', 00H, '\'
	DB	00H, '1', 00H, '4', 00H, '.', 00H, '1', 00H, '6', 00H, '.', 00H
	DB	'2', 00H, '7', 00H, '0', 00H, '2', 00H, '3', 00H, '\', 00H, 'i'
	DB	00H, 'n', 00H, 'c', 00H, 'l', 00H, 'u', 00H, 'd', 00H, 'e', 00H
	DB	'\', 00H, 'v', 00H, 'e', 00H, 'c', 00H, 't', 00H, 'o', 00H, 'r'
	DB	00H, 00H, 00H				; `string'
CONST	ENDS
;	COMDAT ??_C@_0GK@ECBJCIPN@c?3?2program?5files?5?$CIx86?$CJ?2microsof@
CONST	SEGMENT
??_C@_0GK@ECBJCIPN@c?3?2program?5files?5?$CIx86?$CJ?2microsof@ DB 'c:\pro'
	DB	'gram files (x86)\microsoft visual studio\2017\professional\vc'
	DB	'\tools\msvc\14.16.27023\include\vector', 00H ; `string'
CONST	ENDS
;	COMDAT ??_C@_0BO@PFKOHNJC@vector?5subscript?5out?5of?5range@
CONST	SEGMENT
??_C@_0BO@PFKOHNJC@vector?5subscript?5out?5of?5range@ DB 'vector subscrip'
	DB	't out of range', 00H			; `string'
CONST	ENDS
;	COMDAT ??_C@_0N@LPFKKEBD@?3AM?3am?3PM?3pm@
CONST	SEGMENT
??_C@_0N@LPFKKEBD@?3AM?3am?3PM?3pm@ DB ':AM:am:PM:pm', 00H ; `string'
CONST	ENDS
;	COMDAT ??_C@_01IPJKGB@?$CD@
CONST	SEGMENT
??_C@_01IPJKGB@?$CD@ DB '#', 00H			; `string'
CONST	ENDS
;	COMDAT ??_C@_01CLKCMJKC@?5@
CONST	SEGMENT
??_C@_01CLKCMJKC@?5@ DB ' ', 00H			; `string'
CONST	ENDS
;	COMDAT ??_C@_02MCBMIIIH@?5?6@
CONST	SEGMENT
??_C@_02MCBMIIIH@?5?6@ DB ' ', 0aH, 00H			; `string'
CONST	ENDS
;	COMDAT ??_C@_01MIFGBAGJ@?$CL@
CONST	SEGMENT
??_C@_01MIFGBAGJ@?$CL@ DB '+', 00H			; `string'
CONST	ENDS
;	COMDAT ??_C@_01EEMJAFIK@?6@
CONST	SEGMENT
??_C@_01EEMJAFIK@?6@ DB 0aH, 00H			; `string'
CONST	ENDS
;	COMDAT ??_C@_0GL@ILPOCPIL@c?3?2program?5files?5?$CIx86?$CJ?2microsof@
CONST	SEGMENT
??_C@_0GL@ILPOCPIL@c?3?2program?5files?5?$CIx86?$CJ?2microsof@ DB 'c:\pro'
	DB	'gram files (x86)\microsoft visual studio\2017\professional\vc'
	DB	'\tools\msvc\14.16.27023\include\xlocnum', 00H ; `string'
CONST	ENDS
;	COMDAT ?__LINE__Var@?0??_Maklocwcs@std@@YAPA_WPB_W@Z@4JA
_DATA	SEGMENT
?__LINE__Var@?0??_Maklocwcs@std@@YAPA_WPB_W@Z@4JA DD 061H ; `std::_Maklocwcs'::`1'::__LINE__Var
_DATA	ENDS
;	COMDAT ??_C@_0GL@ILDCNCK@c?3?2program?5files?5?$CIx86?$CJ?2microsof@
CONST	SEGMENT
??_C@_0GL@ILDCNCK@c?3?2program?5files?5?$CIx86?$CJ?2microsof@ DB 'c:\prog'
	DB	'ram files (x86)\microsoft visual studio\2017\professional\vc\'
	DB	'tools\msvc\14.16.27023\include\xlocale', 00H ; `string'
CONST	ENDS
;	COMDAT ??_C@_1EK@NIFDJFDG@?$AAs?$AAt?$AAd?$AA?3?$AA?3?$AA_?$AAA?$AAd?$AAj?$AAu?$AAs?$AAt?$AA_?$AAm?$AAa@
CONST	SEGMENT
??_C@_1EK@NIFDJFDG@?$AAs?$AAt?$AAd?$AA?3?$AA?3?$AA_?$AAA?$AAd?$AAj?$AAu?$AAs?$AAt?$AA_?$AAm?$AAa@ DB 's'
	DB	00H, 't', 00H, 'd', 00H, ':', 00H, ':', 00H, '_', 00H, 'A', 00H
	DB	'd', 00H, 'j', 00H, 'u', 00H, 's', 00H, 't', 00H, '_', 00H, 'm'
	DB	00H, 'a', 00H, 'n', 00H, 'u', 00H, 'a', 00H, 'l', 00H, 'l', 00H
	DB	'y', 00H, '_', 00H, 'v', 00H, 'e', 00H, 'c', 00H, 't', 00H, 'o'
	DB	00H, 'r', 00H, '_', 00H, 'a', 00H, 'l', 00H, 'i', 00H, 'g', 00H
	DB	'n', 00H, 'e', 00H, 'd', 00H, 00H, 00H	; `string'
CONST	ENDS
;	COMDAT ??_C@_1NI@NGGEPBDP@?$AAc?$AA?3?$AA?2?$AAp?$AAr?$AAo?$AAg?$AAr?$AAa?$AAm?$AA?5?$AAf?$AAi?$AAl?$AAe@
CONST	SEGMENT
??_C@_1NI@NGGEPBDP@?$AAc?$AA?3?$AA?2?$AAp?$AAr?$AAo?$AAg?$AAr?$AAa?$AAm?$AA?5?$AAf?$AAi?$AAl?$AAe@ DB 'c'
	DB	00H, ':', 00H, '\', 00H, 'p', 00H, 'r', 00H, 'o', 00H, 'g', 00H
	DB	'r', 00H, 'a', 00H, 'm', 00H, ' ', 00H, 'f', 00H, 'i', 00H, 'l'
	DB	00H, 'e', 00H, 's', 00H, ' ', 00H, '(', 00H, 'x', 00H, '8', 00H
	DB	'6', 00H, ')', 00H, '\', 00H, 'm', 00H, 'i', 00H, 'c', 00H, 'r'
	DB	00H, 'o', 00H, 's', 00H, 'o', 00H, 'f', 00H, 't', 00H, ' ', 00H
	DB	'v', 00H, 'i', 00H, 's', 00H, 'u', 00H, 'a', 00H, 'l', 00H, ' '
	DB	00H, 's', 00H, 't', 00H, 'u', 00H, 'd', 00H, 'i', 00H, 'o', 00H
	DB	'\', 00H, '2', 00H, '0', 00H, '1', 00H, '7', 00H, '\', 00H, 'p'
	DB	00H, 'r', 00H, 'o', 00H, 'f', 00H, 'e', 00H, 's', 00H, 's', 00H
	DB	'i', 00H, 'o', 00H, 'n', 00H, 'a', 00H, 'l', 00H, '\', 00H, 'v'
	DB	00H, 'c', 00H, '\', 00H, 't', 00H, 'o', 00H, 'o', 00H, 'l', 00H
	DB	's', 00H, '\', 00H, 'm', 00H, 's', 00H, 'v', 00H, 'c', 00H, '\'
	DB	00H, '1', 00H, '4', 00H, '.', 00H, '1', 00H, '6', 00H, '.', 00H
	DB	'2', 00H, '7', 00H, '0', 00H, '2', 00H, '3', 00H, '\', 00H, 'i'
	DB	00H, 'n', 00H, 'c', 00H, 'l', 00H, 'u', 00H, 'd', 00H, 'e', 00H
	DB	'\', 00H, 'x', 00H, 'm', 00H, 'e', 00H, 'm', 00H, 'o', 00H, 'r'
	DB	00H, 'y', 00H, '0', 00H, 00H, 00H		; `string'
CONST	ENDS
;	COMDAT ??_C@_0GM@EMOPLGHB@c?3?2program?5files?5?$CIx86?$CJ?2microsof@
CONST	SEGMENT
??_C@_0GM@EMOPLGHB@c?3?2program?5files?5?$CIx86?$CJ?2microsof@ DB 'c:\pro'
	DB	'gram files (x86)\microsoft visual studio\2017\professional\vc'
	DB	'\tools\msvc\14.16.27023\include\xmemory0', 00H ; `string'
CONST	ENDS
;	COMDAT ?__LINE__Var@?0??_Adjust_manually_vector_aligned@std@@YAXAAPAXAAI@Z@4JA
_DATA	SEGMENT
?__LINE__Var@?0??_Adjust_manually_vector_aligned@std@@YAXAAPAXAAI@Z@4JA DD 072H ; `std::_Adjust_manually_vector_aligned'::`1'::__LINE__Var
_DATA	ENDS
;	COMDAT ??_C@_1DG@PLBPCAEM@?$AA?$CC?$AAI?$AAT?$AAE?$AAR?$AAA?$AAT?$AAO?$AAR?$AA?5?$AAL?$AAI?$AAS?$AAT?$AA?5@
CONST	SEGMENT
??_C@_1DG@PLBPCAEM@?$AA?$CC?$AAI?$AAT?$AAE?$AAR?$AAA?$AAT?$AAO?$AAR?$AA?5?$AAL?$AAI?$AAS?$AAT?$AA?5@ DB '"'
	DB	00H, 'I', 00H, 'T', 00H, 'E', 00H, 'R', 00H, 'A', 00H, 'T', 00H
	DB	'O', 00H, 'R', 00H, ' ', 00H, 'L', 00H, 'I', 00H, 'S', 00H, 'T'
	DB	00H, ' ', 00H, 'C', 00H, 'O', 00H, 'R', 00H, 'R', 00H, 'U', 00H
	DB	'P', 00H, 'T', 00H, 'E', 00H, 'D', 00H, '!', 00H, '"', 00H, 00H
	DB	00H						; `string'
CONST	ENDS
;	COMDAT ??_C@_1EE@KLDMFDFL@?$AAs?$AAt?$AAd?$AA?3?$AA?3?$AA_?$AAI?$AAt?$AAe?$AAr?$AAa?$AAt?$AAo?$AAr?$AA_@
CONST	SEGMENT
??_C@_1EE@KLDMFDFL@?$AAs?$AAt?$AAd?$AA?3?$AA?3?$AA_?$AAI?$AAt?$AAe?$AAr?$AAa?$AAt?$AAo?$AAr?$AA_@ DB 's'
	DB	00H, 't', 00H, 'd', 00H, ':', 00H, ':', 00H, '_', 00H, 'I', 00H
	DB	't', 00H, 'e', 00H, 'r', 00H, 'a', 00H, 't', 00H, 'o', 00H, 'r'
	DB	00H, '_', 00H, 'b', 00H, 'a', 00H, 's', 00H, 'e', 00H, '1', 00H
	DB	'2', 00H, ':', 00H, ':', 00H, '_', 00H, 'O', 00H, 'r', 00H, 'p'
	DB	00H, 'h', 00H, 'a', 00H, 'n', 00H, '_', 00H, 'm', 00H, 'e', 00H
	DB	00H, 00H					; `string'
CONST	ENDS
;	COMDAT ??_C@_1NI@CLIPCEJM@?$AAc?$AA?3?$AA?2?$AAp?$AAr?$AAo?$AAg?$AAr?$AAa?$AAm?$AA?5?$AAf?$AAi?$AAl?$AAe@
CONST	SEGMENT
??_C@_1NI@CLIPCEJM@?$AAc?$AA?3?$AA?2?$AAp?$AAr?$AAo?$AAg?$AAr?$AAa?$AAm?$AA?5?$AAf?$AAi?$AAl?$AAe@ DB 'c'
	DB	00H, ':', 00H, '\', 00H, 'p', 00H, 'r', 00H, 'o', 00H, 'g', 00H
	DB	'r', 00H, 'a', 00H, 'm', 00H, ' ', 00H, 'f', 00H, 'i', 00H, 'l'
	DB	00H, 'e', 00H, 's', 00H, ' ', 00H, '(', 00H, 'x', 00H, '8', 00H
	DB	'6', 00H, ')', 00H, '\', 00H, 'm', 00H, 'i', 00H, 'c', 00H, 'r'
	DB	00H, 'o', 00H, 's', 00H, 'o', 00H, 'f', 00H, 't', 00H, ' ', 00H
	DB	'v', 00H, 'i', 00H, 's', 00H, 'u', 00H, 'a', 00H, 'l', 00H, ' '
	DB	00H, 's', 00H, 't', 00H, 'u', 00H, 'd', 00H, 'i', 00H, 'o', 00H
	DB	'\', 00H, '2', 00H, '0', 00H, '1', 00H, '7', 00H, '\', 00H, 'p'
	DB	00H, 'r', 00H, 'o', 00H, 'f', 00H, 'e', 00H, 's', 00H, 's', 00H
	DB	'i', 00H, 'o', 00H, 'n', 00H, 'a', 00H, 'l', 00H, '\', 00H, 'v'
	DB	00H, 'c', 00H, '\', 00H, 't', 00H, 'o', 00H, 'o', 00H, 'l', 00H
	DB	's', 00H, '\', 00H, 'm', 00H, 's', 00H, 'v', 00H, 'c', 00H, '\'
	DB	00H, '1', 00H, '4', 00H, '.', 00H, '1', 00H, '6', 00H, '.', 00H
	DB	'2', 00H, '7', 00H, '0', 00H, '2', 00H, '3', 00H, '\', 00H, 'i'
	DB	00H, 'n', 00H, 'c', 00H, 'l', 00H, 'u', 00H, 'd', 00H, 'e', 00H
	DB	'\', 00H, 'x', 00H, 'u', 00H, 't', 00H, 'i', 00H, 'l', 00H, 'i'
	DB	00H, 't', 00H, 'y', 00H, 00H, 00H		; `string'
CONST	ENDS
;	COMDAT ??_C@_0GM@FAFCIENC@c?3?2program?5files?5?$CIx86?$CJ?2microsof@
CONST	SEGMENT
??_C@_0GM@FAFCIENC@c?3?2program?5files?5?$CIx86?$CJ?2microsof@ DB 'c:\pro'
	DB	'gram files (x86)\microsoft visual studio\2017\professional\vc'
	DB	'\tools\msvc\14.16.27023\include\xutility', 00H ; `string'
CONST	ENDS
;	COMDAT ??_C@_0BJ@LFDBABJJ@ITERATOR?5LIST?5CORRUPTED?$CB@
CONST	SEGMENT
??_C@_0BJ@LFDBABJJ@ITERATOR?5LIST?5CORRUPTED?$CB@ DB 'ITERATOR LIST CORRU'
	DB	'PTED!', 00H					; `string'
CONST	ENDS
;	COMDAT ??_C@_1CG@JNLFBNGN@?$AA?$CC?$AAi?$AAn?$AAv?$AAa?$AAl?$AAi?$AAd?$AA?5?$AAa?$AAr?$AAg?$AAu?$AAm?$AAe@
CONST	SEGMENT
??_C@_1CG@JNLFBNGN@?$AA?$CC?$AAi?$AAn?$AAv?$AAa?$AAl?$AAi?$AAd?$AA?5?$AAa?$AAr?$AAg?$AAu?$AAm?$AAe@ DB '"'
	DB	00H, 'i', 00H, 'n', 00H, 'v', 00H, 'a', 00H, 'l', 00H, 'i', 00H
	DB	'd', 00H, ' ', 00H, 'a', 00H, 'r', 00H, 'g', 00H, 'u', 00H, 'm'
	DB	00H, 'e', 00H, 'n', 00H, 't', 00H, '"', 00H, 00H, 00H ; `string'
CONST	ENDS
;	COMDAT ??_C@_02DKCKIIND@?$CFs@
CONST	SEGMENT
??_C@_02DKCKIIND@?$CFs@ DB '%s', 00H			; `string'
CONST	ENDS
;	COMDAT ??_C@_0BB@FCMFBGOM@invalid?5argument@
CONST	SEGMENT
??_C@_0BB@FCMFBGOM@invalid?5argument@ DB 'invalid argument', 00H ; `string'
CONST	ENDS
;	COMDAT xdata$x
xdata$x	SEGMENT
__ehfuncinfo$??$forward@ABV?$allocator@H@std@@@std@@YAABV?$allocator@H@0@ABV10@@Z DD 019930522H
	DD	00H
	DD	00H
	DD	2 DUP(00H)
	DD	2 DUP(00H)
	DD	00H
	DD	05H
xdata$x	ENDS
;	COMDAT xdata$x
xdata$x	SEGMENT
__ehfuncinfo$??$forward@U_Container_proxy@std@@@std@@YA$$QAU_Container_proxy@0@AAU10@@Z DD 019930522H
	DD	00H
	DD	00H
	DD	2 DUP(00H)
	DD	2 DUP(00H)
	DD	00H
	DD	05H
xdata$x	ENDS
;	COMDAT xdata$x
xdata$x	SEGMENT
__unwindtable$??$accumulate@V?$_Vector_iterator@V?$_Vector_val@U?$_Simple_types@H@std@@@std@@@std@@_KU?$plus@X@2@@std@@YA_KV?$_Vector_iterator@V?$_Vector_val@U?$_Simple_types@H@std@@@std@@@0@0_KU?$plus@X@0@@Z DD 0ffffffffH
	DD	FLAT:__unwindfunclet$??$accumulate@V?$_Vector_iterator@V?$_Vector_val@U?$_Simple_types@H@std@@@std@@@std@@_KU?$plus@X@2@@std@@YA_KV?$_Vector_iterator@V?$_Vector_val@U?$_Simple_types@H@std@@@std@@@0@0_KU?$plus@X@0@@Z$0
	DD	00H
	DD	FLAT:__unwindfunclet$??$accumulate@V?$_Vector_iterator@V?$_Vector_val@U?$_Simple_types@H@std@@@std@@@std@@_KU?$plus@X@2@@std@@YA_KV?$_Vector_iterator@V?$_Vector_val@U?$_Simple_types@H@std@@@std@@@0@0_KU?$plus@X@0@@Z$1
__ehfuncinfo$??$accumulate@V?$_Vector_iterator@V?$_Vector_val@U?$_Simple_types@H@std@@@std@@@std@@_KU?$plus@X@2@@std@@YA_KV?$_Vector_iterator@V?$_Vector_val@U?$_Simple_types@H@std@@@std@@@0@0_KU?$plus@X@0@@Z DD 019930522H
	DD	02H
	DD	FLAT:__unwindtable$??$accumulate@V?$_Vector_iterator@V?$_Vector_val@U?$_Simple_types@H@std@@@std@@@std@@_KU?$plus@X@2@@std@@YA_KV?$_Vector_iterator@V?$_Vector_val@U?$_Simple_types@H@std@@@std@@@0@0_KU?$plus@X@0@@Z
	DD	2 DUP(00H)
	DD	2 DUP(00H)
	DD	00H
	DD	01H
xdata$x	ENDS
;	COMDAT xdata$x
xdata$x	SEGMENT
__unwindtable$??$max_element@V?$_Vector_iterator@V?$_Vector_val@U?$_Simple_types@H@std@@@std@@@std@@U?$less@X@2@@std@@YA?AV?$_Vector_iterator@V?$_Vector_val@U?$_Simple_types@H@std@@@std@@@0@V10@0U?$less@X@0@@Z DD 0ffffffffH
	DD	FLAT:__unwindfunclet$??$max_element@V?$_Vector_iterator@V?$_Vector_val@U?$_Simple_types@H@std@@@std@@@std@@U?$less@X@2@@std@@YA?AV?$_Vector_iterator@V?$_Vector_val@U?$_Simple_types@H@std@@@std@@@0@V10@0U?$less@X@0@@Z$0
	DD	00H
	DD	FLAT:__unwindfunclet$??$max_element@V?$_Vector_iterator@V?$_Vector_val@U?$_Simple_types@H@std@@@std@@@std@@U?$less@X@2@@std@@YA?AV?$_Vector_iterator@V?$_Vector_val@U?$_Simple_types@H@std@@@std@@@0@V10@0U?$less@X@0@@Z$1
__ehfuncinfo$??$max_element@V?$_Vector_iterator@V?$_Vector_val@U?$_Simple_types@H@std@@@std@@@std@@U?$less@X@2@@std@@YA?AV?$_Vector_iterator@V?$_Vector_val@U?$_Simple_types@H@std@@@std@@@0@V10@0U?$less@X@0@@Z DD 019930522H
	DD	02H
	DD	FLAT:__unwindtable$??$max_element@V?$_Vector_iterator@V?$_Vector_val@U?$_Simple_types@H@std@@@std@@@std@@U?$less@X@2@@std@@YA?AV?$_Vector_iterator@V?$_Vector_val@U?$_Simple_types@H@std@@@std@@@0@V10@0U?$less@X@0@@Z
	DD	2 DUP(00H)
	DD	2 DUP(00H)
	DD	00H
	DD	01H
xdata$x	ENDS
;	COMDAT xdata$x
xdata$x	SEGMENT
__catchsym$??$_Range_construct_or_tidy@PAH@?$vector@HV?$allocator@H@std@@@std@@AAEXPAH0Uforward_iterator_tag@1@@Z$2 DD 040H
	DD	00H
	DD	00H
	DD	FLAT:__catch$??$_Range_construct_or_tidy@PAH@?$vector@HV?$allocator@H@std@@@std@@AAEXPAH0Uforward_iterator_tag@1@@Z$0
__unwindtable$??$_Range_construct_or_tidy@PAH@?$vector@HV?$allocator@H@std@@@std@@AAEXPAH0Uforward_iterator_tag@1@@Z DD 0ffffffffH
	DD	00H
	DD	0ffffffffH
	DD	00H
__tryblocktable$??$_Range_construct_or_tidy@PAH@?$vector@HV?$allocator@H@std@@@std@@AAEXPAH0Uforward_iterator_tag@1@@Z DD 00H
	DD	00H
	DD	01H
	DD	01H
	DD	FLAT:__catchsym$??$_Range_construct_or_tidy@PAH@?$vector@HV?$allocator@H@std@@@std@@AAEXPAH0Uforward_iterator_tag@1@@Z$2
__ehfuncinfo$??$_Range_construct_or_tidy@PAH@?$vector@HV?$allocator@H@std@@@std@@AAEXPAH0Uforward_iterator_tag@1@@Z DD 019930522H
	DD	02H
	DD	FLAT:__unwindtable$??$_Range_construct_or_tidy@PAH@?$vector@HV?$allocator@H@std@@@std@@AAEXPAH0Uforward_iterator_tag@1@@Z
	DD	01H
	DD	FLAT:__tryblocktable$??$_Range_construct_or_tidy@PAH@?$vector@HV?$allocator@H@std@@@std@@AAEXPAH0Uforward_iterator_tag@1@@Z
	DD	2 DUP(00H)
	DD	00H
	DD	01H
xdata$x	ENDS
;	COMDAT xdata$x
xdata$x	SEGMENT
__ehfuncinfo$??$?0V?$vector@HV?$allocator@H@std@@@std@@@?$allocator@U_Container_proxy@std@@@std@@QAE@ABV?$allocator@V?$vector@HV?$allocator@H@std@@@std@@@1@@Z DD 019930522H
	DD	00H
	DD	00H
	DD	2 DUP(00H)
	DD	2 DUP(00H)
	DD	00H
	DD	05H
xdata$x	ENDS
;	COMDAT xdata$x
xdata$x	SEGMENT
__ehfuncinfo$??$?0H@?$allocator@U_Container_proxy@std@@@std@@QAE@ABV?$allocator@H@1@@Z DD 019930522H
	DD	00H
	DD	00H
	DD	2 DUP(00H)
	DD	2 DUP(00H)
	DD	00H
	DD	05H
xdata$x	ENDS
;	COMDAT xdata$x
xdata$x	SEGMENT
__ehfuncinfo$??1sentry@?$basic_ostream@DU?$char_traits@D@std@@@std@@QAE@XZ DD 019930522H
	DD	00H
	DD	00H
	DD	2 DUP(00H)
	DD	2 DUP(00H)
	DD	00H
	DD	05H
xdata$x	ENDS
;	COMDAT xdata$x
xdata$x	SEGMENT
__unwindtable$??0sentry@?$basic_ostream@DU?$char_traits@D@std@@@std@@QAE@AAV12@@Z DD 0ffffffffH
	DD	FLAT:__unwindfunclet$??0sentry@?$basic_ostream@DU?$char_traits@D@std@@@std@@QAE@AAV12@@Z$0
__ehfuncinfo$??0sentry@?$basic_ostream@DU?$char_traits@D@std@@@std@@QAE@AAV12@@Z DD 019930522H
	DD	01H
	DD	FLAT:__unwindtable$??0sentry@?$basic_ostream@DU?$char_traits@D@std@@@std@@QAE@AAV12@@Z
	DD	2 DUP(00H)
	DD	2 DUP(00H)
	DD	00H
	DD	01H
xdata$x	ENDS
;	COMDAT xdata$x
xdata$x	SEGMENT
__ehfuncinfo$??1_Sentry_base@?$basic_ostream@DU?$char_traits@D@std@@@std@@QAE@XZ DD 019930522H
	DD	00H
	DD	00H
	DD	2 DUP(00H)
	DD	2 DUP(00H)
	DD	00H
	DD	05H
xdata$x	ENDS
;	COMDAT xdata$x
xdata$x	SEGMENT
__ehfuncinfo$??$addressof@V?$_Vector_val@U?$_Simple_types@H@std@@@std@@@std@@YAPAV?$_Vector_val@U?$_Simple_types@H@std@@@0@AAV10@@Z DD 019930522H
	DD	00H
	DD	00H
	DD	2 DUP(00H)
	DD	2 DUP(00H)
	DD	00H
	DD	05H
xdata$x	ENDS
;	COMDAT xdata$x
xdata$x	SEGMENT
__unwindtable$??$accumulate@V?$_Vector_iterator@V?$_Vector_val@U?$_Simple_types@H@std@@@std@@@std@@_K@std@@YA_KV?$_Vector_iterator@V?$_Vector_val@U?$_Simple_types@H@std@@@std@@@0@0_K@Z DD 0ffffffffH
	DD	FLAT:__unwindfunclet$??$accumulate@V?$_Vector_iterator@V?$_Vector_val@U?$_Simple_types@H@std@@@std@@@std@@_K@std@@YA_KV?$_Vector_iterator@V?$_Vector_val@U?$_Simple_types@H@std@@@std@@@0@0_K@Z$0
	DD	00H
	DD	FLAT:__unwindfunclet$??$accumulate@V?$_Vector_iterator@V?$_Vector_val@U?$_Simple_types@H@std@@@std@@@std@@_K@std@@YA_KV?$_Vector_iterator@V?$_Vector_val@U?$_Simple_types@H@std@@@std@@@0@0_K@Z$1
__ehfuncinfo$??$accumulate@V?$_Vector_iterator@V?$_Vector_val@U?$_Simple_types@H@std@@@std@@@std@@_K@std@@YA_KV?$_Vector_iterator@V?$_Vector_val@U?$_Simple_types@H@std@@@std@@@0@0_K@Z DD 019930522H
	DD	02H
	DD	FLAT:__unwindtable$??$accumulate@V?$_Vector_iterator@V?$_Vector_val@U?$_Simple_types@H@std@@@std@@@std@@_K@std@@YA_KV?$_Vector_iterator@V?$_Vector_val@U?$_Simple_types@H@std@@@std@@@0@0_K@Z
	DD	2 DUP(00H)
	DD	2 DUP(00H)
	DD	00H
	DD	01H
xdata$x	ENDS
;	COMDAT xdata$x
xdata$x	SEGMENT
__unwindtable$??$find@V?$_Vector_iterator@V?$_Vector_val@U?$_Simple_types@H@std@@@std@@@std@@H@std@@YA?AV?$_Vector_iterator@V?$_Vector_val@U?$_Simple_types@H@std@@@std@@@0@V10@V10@ABH@Z DD 0ffffffffH
	DD	FLAT:__unwindfunclet$??$find@V?$_Vector_iterator@V?$_Vector_val@U?$_Simple_types@H@std@@@std@@@std@@H@std@@YA?AV?$_Vector_iterator@V?$_Vector_val@U?$_Simple_types@H@std@@@std@@@0@V10@V10@ABH@Z$0
	DD	00H
	DD	FLAT:__unwindfunclet$??$find@V?$_Vector_iterator@V?$_Vector_val@U?$_Simple_types@H@std@@@std@@@std@@H@std@@YA?AV?$_Vector_iterator@V?$_Vector_val@U?$_Simple_types@H@std@@@std@@@0@V10@V10@ABH@Z$1
__ehfuncinfo$??$find@V?$_Vector_iterator@V?$_Vector_val@U?$_Simple_types@H@std@@@std@@@std@@H@std@@YA?AV?$_Vector_iterator@V?$_Vector_val@U?$_Simple_types@H@std@@@std@@@0@V10@V10@ABH@Z DD 019930522H
	DD	02H
	DD	FLAT:__unwindtable$??$find@V?$_Vector_iterator@V?$_Vector_val@U?$_Simple_types@H@std@@@std@@@std@@H@std@@YA?AV?$_Vector_iterator@V?$_Vector_val@U?$_Simple_types@H@std@@@std@@@0@V10@V10@ABH@Z
	DD	2 DUP(00H)
	DD	2 DUP(00H)
	DD	00H
	DD	01H
xdata$x	ENDS
;	COMDAT xdata$x
xdata$x	SEGMENT
__unwindtable$??$max_element@V?$_Vector_iterator@V?$_Vector_val@U?$_Simple_types@H@std@@@std@@@std@@@std@@YA?AV?$_Vector_iterator@V?$_Vector_val@U?$_Simple_types@H@std@@@std@@@0@V10@0@Z DD 0ffffffffH
	DD	FLAT:__unwindfunclet$??$max_element@V?$_Vector_iterator@V?$_Vector_val@U?$_Simple_types@H@std@@@std@@@std@@@std@@YA?AV?$_Vector_iterator@V?$_Vector_val@U?$_Simple_types@H@std@@@std@@@0@V10@0@Z$0
	DD	00H
	DD	FLAT:__unwindfunclet$??$max_element@V?$_Vector_iterator@V?$_Vector_val@U?$_Simple_types@H@std@@@std@@@std@@@std@@YA?AV?$_Vector_iterator@V?$_Vector_val@U?$_Simple_types@H@std@@@std@@@0@V10@0@Z$1
__ehfuncinfo$??$max_element@V?$_Vector_iterator@V?$_Vector_val@U?$_Simple_types@H@std@@@std@@@std@@@std@@YA?AV?$_Vector_iterator@V?$_Vector_val@U?$_Simple_types@H@std@@@std@@@0@V10@0@Z DD 019930522H
	DD	02H
	DD	FLAT:__unwindtable$??$max_element@V?$_Vector_iterator@V?$_Vector_val@U?$_Simple_types@H@std@@@std@@@std@@@std@@YA?AV?$_Vector_iterator@V?$_Vector_val@U?$_Simple_types@H@std@@@std@@@0@V10@0@Z
	DD	2 DUP(00H)
	DD	2 DUP(00H)
	DD	00H
	DD	01H
xdata$x	ENDS
;	COMDAT xdata$x
xdata$x	SEGMENT
__unwindtable$??$?0V?$_Vector_iterator@V?$_Vector_val@U?$_Simple_types@H@std@@@std@@@std@@X@?$vector@HV?$allocator@H@std@@@std@@QAE@V?$_Vector_iterator@V?$_Vector_val@U?$_Simple_types@H@std@@@std@@@1@0ABV?$allocator@H@1@@Z DD 0ffffffffH
	DD	FLAT:__unwindfunclet$??$?0V?$_Vector_iterator@V?$_Vector_val@U?$_Simple_types@H@std@@@std@@@std@@X@?$vector@HV?$allocator@H@std@@@std@@QAE@V?$_Vector_iterator@V?$_Vector_val@U?$_Simple_types@H@std@@@std@@@1@0ABV?$allocator@H@1@@Z$0
	DD	00H
	DD	FLAT:__unwindfunclet$??$?0V?$_Vector_iterator@V?$_Vector_val@U?$_Simple_types@H@std@@@std@@@std@@X@?$vector@HV?$allocator@H@std@@@std@@QAE@V?$_Vector_iterator@V?$_Vector_val@U?$_Simple_types@H@std@@@std@@@1@0ABV?$allocator@H@1@@Z$1
	DD	01H
	DD	FLAT:__unwindfunclet$??$?0V?$_Vector_iterator@V?$_Vector_val@U?$_Simple_types@H@std@@@std@@@std@@X@?$vector@HV?$allocator@H@std@@@std@@QAE@V?$_Vector_iterator@V?$_Vector_val@U?$_Simple_types@H@std@@@std@@@1@0ABV?$allocator@H@1@@Z$2
__ehfuncinfo$??$?0V?$_Vector_iterator@V?$_Vector_val@U?$_Simple_types@H@std@@@std@@@std@@X@?$vector@HV?$allocator@H@std@@@std@@QAE@V?$_Vector_iterator@V?$_Vector_val@U?$_Simple_types@H@std@@@std@@@1@0ABV?$allocator@H@1@@Z DD 019930522H
	DD	03H
	DD	FLAT:__unwindtable$??$?0V?$_Vector_iterator@V?$_Vector_val@U?$_Simple_types@H@std@@@std@@@std@@X@?$vector@HV?$allocator@H@std@@@std@@QAE@V?$_Vector_iterator@V?$_Vector_val@U?$_Simple_types@H@std@@@std@@@1@0ABV?$allocator@H@1@@Z
	DD	2 DUP(00H)
	DD	2 DUP(00H)
	DD	00H
	DD	01H
xdata$x	ENDS
;	COMDAT xdata$x
xdata$x	SEGMENT
__catchsym$??$?6U?$char_traits@D@std@@@std@@YAAAV?$basic_ostream@DU?$char_traits@D@std@@@0@AAV10@PBD@Z$3 DD 040H
	DD	00H
	DD	00H
	DD	FLAT:__catch$??$?6U?$char_traits@D@std@@@std@@YAAAV?$basic_ostream@DU?$char_traits@D@std@@@0@AAV10@PBD@Z$0
__tryblocktable$??$?6U?$char_traits@D@std@@@std@@YAAAV?$basic_ostream@DU?$char_traits@D@std@@@0@AAV10@PBD@Z DD 01H
	DD	01H
	DD	02H
	DD	01H
	DD	FLAT:__catchsym$??$?6U?$char_traits@D@std@@@std@@YAAAV?$basic_ostream@DU?$char_traits@D@std@@@0@AAV10@PBD@Z$3
__unwindtable$??$?6U?$char_traits@D@std@@@std@@YAAAV?$basic_ostream@DU?$char_traits@D@std@@@0@AAV10@PBD@Z DD 0ffffffffH
	DD	FLAT:__unwindfunclet$??$?6U?$char_traits@D@std@@@std@@YAAAV?$basic_ostream@DU?$char_traits@D@std@@@0@AAV10@PBD@Z$2
	DD	00H
	DD	00H
	DD	00H
	DD	00H
__ehfuncinfo$??$?6U?$char_traits@D@std@@@std@@YAAAV?$basic_ostream@DU?$char_traits@D@std@@@0@AAV10@PBD@Z DD 019930522H
	DD	03H
	DD	FLAT:__unwindtable$??$?6U?$char_traits@D@std@@@std@@YAAAV?$basic_ostream@DU?$char_traits@D@std@@@0@AAV10@PBD@Z
	DD	01H
	DD	FLAT:__tryblocktable$??$?6U?$char_traits@D@std@@@std@@YAAAV?$basic_ostream@DU?$char_traits@D@std@@@0@AAV10@PBD@Z
	DD	2 DUP(00H)
	DD	00H
	DD	01H
xdata$x	ENDS
;	COMDAT xdata$x
xdata$x	SEGMENT
__unwindtable$?_Orphan_range@?$vector@HV?$allocator@H@std@@@std@@ABEXPAH0@Z DD 0ffffffffH
	DD	FLAT:__unwindfunclet$?_Orphan_range@?$vector@HV?$allocator@H@std@@@std@@ABEXPAH0@Z$0
__ehfuncinfo$?_Orphan_range@?$vector@HV?$allocator@H@std@@@std@@ABEXPAH0@Z DD 019930522H
	DD	01H
	DD	FLAT:__unwindtable$?_Orphan_range@?$vector@HV?$allocator@H@std@@@std@@ABEXPAH0@Z
	DD	2 DUP(00H)
	DD	2 DUP(00H)
	DD	00H
	DD	01H
xdata$x	ENDS
;	COMDAT xdata$x
xdata$x	SEGMENT
__ehfuncinfo$?capacity@?$vector@HV?$allocator@H@std@@@std@@QBEIXZ DD 019930522H
	DD	00H
	DD	00H
	DD	2 DUP(00H)
	DD	2 DUP(00H)
	DD	00H
	DD	05H
xdata$x	ENDS
;	COMDAT xdata$x
xdata$x	SEGMENT
__ehfuncinfo$?max_size@?$vector@HV?$allocator@H@std@@@std@@QBEIXZ DD 019930522H
	DD	00H
	DD	00H
	DD	2 DUP(00H)
	DD	2 DUP(00H)
	DD	00H
	DD	05H
xdata$x	ENDS
;	COMDAT xdata$x
xdata$x	SEGMENT
__ehfuncinfo$?size@?$vector@HV?$allocator@H@std@@@std@@QBEIXZ DD 019930522H
	DD	00H
	DD	00H
	DD	2 DUP(00H)
	DD	2 DUP(00H)
	DD	00H
	DD	05H
xdata$x	ENDS
;	COMDAT xdata$x
xdata$x	SEGMENT
__ehfuncinfo$?_Unchecked_end@?$vector@HV?$allocator@H@std@@@std@@QAEPAHXZ DD 019930522H
	DD	00H
	DD	00H
	DD	2 DUP(00H)
	DD	2 DUP(00H)
	DD	00H
	DD	05H
xdata$x	ENDS
;	COMDAT xdata$x
xdata$x	SEGMENT
__ehfuncinfo$?_Unchecked_begin@?$vector@HV?$allocator@H@std@@@std@@QAEPAHXZ DD 019930522H
	DD	00H
	DD	00H
	DD	2 DUP(00H)
	DD	2 DUP(00H)
	DD	00H
	DD	05H
xdata$x	ENDS
;	COMDAT xdata$x
xdata$x	SEGMENT
__ehfuncinfo$?end@?$vector@HV?$allocator@H@std@@@std@@QAE?AV?$_Vector_iterator@V?$_Vector_val@U?$_Simple_types@H@std@@@std@@@2@XZ DD 019930522H
	DD	00H
	DD	00H
	DD	2 DUP(00H)
	DD	2 DUP(00H)
	DD	00H
	DD	05H
xdata$x	ENDS
;	COMDAT xdata$x
xdata$x	SEGMENT
__ehfuncinfo$?begin@?$vector@HV?$allocator@H@std@@@std@@QAE?AV?$_Vector_iterator@V?$_Vector_val@U?$_Simple_types@H@std@@@std@@@2@XZ DD 019930522H
	DD	00H
	DD	00H
	DD	2 DUP(00H)
	DD	2 DUP(00H)
	DD	00H
	DD	05H
xdata$x	ENDS
;	COMDAT xdata$x
xdata$x	SEGMENT
__unwindtable$?erase@?$vector@HV?$allocator@H@std@@@std@@QAE?AV?$_Vector_iterator@V?$_Vector_val@U?$_Simple_types@H@std@@@std@@@2@V?$_Vector_const_iterator@V?$_Vector_val@U?$_Simple_types@H@std@@@std@@@2@@Z DD 0ffffffffH
	DD	FLAT:__unwindfunclet$?erase@?$vector@HV?$allocator@H@std@@@std@@QAE?AV?$_Vector_iterator@V?$_Vector_val@U?$_Simple_types@H@std@@@std@@@2@V?$_Vector_const_iterator@V?$_Vector_val@U?$_Simple_types@H@std@@@std@@@2@@Z$0
__ehfuncinfo$?erase@?$vector@HV?$allocator@H@std@@@std@@QAE?AV?$_Vector_iterator@V?$_Vector_val@U?$_Simple_types@H@std@@@std@@@2@V?$_Vector_const_iterator@V?$_Vector_val@U?$_Simple_types@H@std@@@std@@@2@@Z DD 019930522H
	DD	01H
	DD	FLAT:__unwindtable$?erase@?$vector@HV?$allocator@H@std@@@std@@QAE?AV?$_Vector_iterator@V?$_Vector_val@U?$_Simple_types@H@std@@@std@@@2@V?$_Vector_const_iterator@V?$_Vector_val@U?$_Simple_types@H@std@@@std@@@2@@Z
	DD	2 DUP(00H)
	DD	2 DUP(00H)
	DD	00H
	DD	01H
xdata$x	ENDS
;	COMDAT xdata$x
xdata$x	SEGMENT
__ehfuncinfo$??1?$vector@HV?$allocator@H@std@@@std@@QAE@XZ DD 019930522H
	DD	00H
	DD	00H
	DD	2 DUP(00H)
	DD	2 DUP(00H)
	DD	00H
	DD	05H
xdata$x	ENDS
;	COMDAT xdata$x
xdata$x	SEGMENT
__ehfuncinfo$?_Get_second@?$_Compressed_pair@V?$allocator@H@std@@V?$_Vector_val@U?$_Simple_types@H@std@@@2@$00@std@@QBEABV?$_Vector_val@U?$_Simple_types@H@std@@@2@XZ DD 019930522H
	DD	00H
	DD	00H
	DD	2 DUP(00H)
	DD	2 DUP(00H)
	DD	00H
	DD	05H
xdata$x	ENDS
;	COMDAT xdata$x
xdata$x	SEGMENT
__ehfuncinfo$?_Get_second@?$_Compressed_pair@V?$allocator@H@std@@V?$_Vector_val@U?$_Simple_types@H@std@@@2@$00@std@@QAEAAV?$_Vector_val@U?$_Simple_types@H@std@@@2@XZ DD 019930522H
	DD	00H
	DD	00H
	DD	2 DUP(00H)
	DD	2 DUP(00H)
	DD	00H
	DD	05H
xdata$x	ENDS
;	COMDAT xdata$x
xdata$x	SEGMENT
__ehfuncinfo$?_Get_first@?$_Compressed_pair@V?$allocator@H@std@@V?$_Vector_val@U?$_Simple_types@H@std@@@2@$00@std@@QBEABV?$allocator@H@2@XZ DD 019930522H
	DD	00H
	DD	00H
	DD	2 DUP(00H)
	DD	2 DUP(00H)
	DD	00H
	DD	05H
xdata$x	ENDS
;	COMDAT xdata$x
xdata$x	SEGMENT
__ehfuncinfo$?_Get_first@?$_Compressed_pair@V?$allocator@H@std@@V?$_Vector_val@U?$_Simple_types@H@std@@@2@$00@std@@QAEAAV?$allocator@H@2@XZ DD 019930522H
	DD	00H
	DD	00H
	DD	2 DUP(00H)
	DD	2 DUP(00H)
	DD	00H
	DD	05H
xdata$x	ENDS
;	COMDAT xdata$x
xdata$x	SEGMENT
__ehfuncinfo$?_Myend@?$_Vector_alloc@U?$_Vec_base_types@HV?$allocator@H@std@@@std@@@std@@QBEABQAHXZ DD 019930522H
	DD	00H
	DD	00H
	DD	2 DUP(00H)
	DD	2 DUP(00H)
	DD	00H
	DD	05H
xdata$x	ENDS
;	COMDAT xdata$x
xdata$x	SEGMENT
__ehfuncinfo$?_Myend@?$_Vector_alloc@U?$_Vec_base_types@HV?$allocator@H@std@@@std@@@std@@QAEAAPAHXZ DD 019930522H
	DD	00H
	DD	00H
	DD	2 DUP(00H)
	DD	2 DUP(00H)
	DD	00H
	DD	05H
xdata$x	ENDS
;	COMDAT xdata$x
xdata$x	SEGMENT
__ehfuncinfo$?_Mylast@?$_Vector_alloc@U?$_Vec_base_types@HV?$allocator@H@std@@@std@@@std@@QBEABQAHXZ DD 019930522H
	DD	00H
	DD	00H
	DD	2 DUP(00H)
	DD	2 DUP(00H)
	DD	00H
	DD	05H
xdata$x	ENDS
;	COMDAT xdata$x
xdata$x	SEGMENT
__ehfuncinfo$?_Mylast@?$_Vector_alloc@U?$_Vec_base_types@HV?$allocator@H@std@@@std@@@std@@QAEAAPAHXZ DD 019930522H
	DD	00H
	DD	00H
	DD	2 DUP(00H)
	DD	2 DUP(00H)
	DD	00H
	DD	05H
xdata$x	ENDS
;	COMDAT xdata$x
xdata$x	SEGMENT
__ehfuncinfo$?_Myfirst@?$_Vector_alloc@U?$_Vec_base_types@HV?$allocator@H@std@@@std@@@std@@QBEABQAHXZ DD 019930522H
	DD	00H
	DD	00H
	DD	2 DUP(00H)
	DD	2 DUP(00H)
	DD	00H
	DD	05H
xdata$x	ENDS
;	COMDAT xdata$x
xdata$x	SEGMENT
__ehfuncinfo$?_Myfirst@?$_Vector_alloc@U?$_Vec_base_types@HV?$allocator@H@std@@@std@@@std@@QAEAAPAHXZ DD 019930522H
	DD	00H
	DD	00H
	DD	2 DUP(00H)
	DD	2 DUP(00H)
	DD	00H
	DD	05H
xdata$x	ENDS
;	COMDAT xdata$x
xdata$x	SEGMENT
__ehfuncinfo$?_Get_data@?$_Vector_alloc@U?$_Vec_base_types@HV?$allocator@H@std@@@std@@@std@@QBEABV?$_Vector_val@U?$_Simple_types@H@std@@@2@XZ DD 019930522H
	DD	00H
	DD	00H
	DD	2 DUP(00H)
	DD	2 DUP(00H)
	DD	00H
	DD	05H
xdata$x	ENDS
;	COMDAT xdata$x
xdata$x	SEGMENT
__ehfuncinfo$?_Get_data@?$_Vector_alloc@U?$_Vec_base_types@HV?$allocator@H@std@@@std@@@std@@QAEAAV?$_Vector_val@U?$_Simple_types@H@std@@@2@XZ DD 019930522H
	DD	00H
	DD	00H
	DD	2 DUP(00H)
	DD	2 DUP(00H)
	DD	00H
	DD	05H
xdata$x	ENDS
;	COMDAT xdata$x
xdata$x	SEGMENT
__ehfuncinfo$?_Getal@?$_Vector_alloc@U?$_Vec_base_types@HV?$allocator@H@std@@@std@@@std@@QBEABV?$allocator@H@2@XZ DD 019930522H
	DD	00H
	DD	00H
	DD	2 DUP(00H)
	DD	2 DUP(00H)
	DD	00H
	DD	05H
xdata$x	ENDS
;	COMDAT xdata$x
xdata$x	SEGMENT
__ehfuncinfo$?_Getal@?$_Vector_alloc@U?$_Vec_base_types@HV?$allocator@H@std@@@std@@@std@@QAEAAV?$allocator@H@2@XZ DD 019930522H
	DD	00H
	DD	00H
	DD	2 DUP(00H)
	DD	2 DUP(00H)
	DD	00H
	DD	05H
xdata$x	ENDS
;	COMDAT xdata$x
xdata$x	SEGMENT
__ehfuncinfo$?_Myproxy@?$_Vector_alloc@U?$_Vec_base_types@HV?$allocator@H@std@@@std@@@std@@QAEAAPAU_Container_proxy@2@XZ DD 019930522H
	DD	00H
	DD	00H
	DD	2 DUP(00H)
	DD	2 DUP(00H)
	DD	00H
	DD	05H
xdata$x	ENDS
;	COMDAT xdata$x
xdata$x	SEGMENT
__ehfuncinfo$??1?$_Vector_alloc@U?$_Vec_base_types@HV?$allocator@H@std@@@std@@@std@@QAE@XZ DD 019930522H
	DD	00H
	DD	00H
	DD	2 DUP(00H)
	DD	2 DUP(00H)
	DD	00H
	DD	05H
xdata$x	ENDS
;	COMDAT xdata$x
xdata$x	SEGMENT
__ehfuncinfo$?max_size@?$_Default_allocator_traits@V?$allocator@H@std@@@std@@SAIABV?$allocator@H@2@@Z DD 019930522H
	DD	00H
	DD	00H
	DD	2 DUP(00H)
	DD	2 DUP(00H)
	DD	00H
	DD	05H
xdata$x	ENDS
;	COMDAT xdata$x
xdata$x	SEGMENT
__ehfuncinfo$??0?$allocator@H@std@@QAE@XZ DD 019930522H
	DD	00H
	DD	00H
	DD	2 DUP(00H)
	DD	2 DUP(00H)
	DD	00H
	DD	05H
xdata$x	ENDS
;	COMDAT xdata$x
xdata$x	SEGMENT
__ehfuncinfo$?capacity@?$vector@V?$vector@HV?$allocator@H@std@@@std@@V?$allocator@V?$vector@HV?$allocator@H@std@@@std@@@2@@std@@QBEIXZ DD 019930522H
	DD	00H
	DD	00H
	DD	2 DUP(00H)
	DD	2 DUP(00H)
	DD	00H
	DD	05H
xdata$x	ENDS
;	COMDAT xdata$x
xdata$x	SEGMENT
__ehfuncinfo$?size@?$vector@V?$vector@HV?$allocator@H@std@@@std@@V?$allocator@V?$vector@HV?$allocator@H@std@@@std@@@2@@std@@QBEIXZ DD 019930522H
	DD	00H
	DD	00H
	DD	2 DUP(00H)
	DD	2 DUP(00H)
	DD	00H
	DD	05H
xdata$x	ENDS
;	COMDAT xdata$x
xdata$x	SEGMENT
__ehfuncinfo$??1?$vector@V?$vector@HV?$allocator@H@std@@@std@@V?$allocator@V?$vector@HV?$allocator@H@std@@@std@@@2@@std@@QAE@XZ DD 019930522H
	DD	00H
	DD	00H
	DD	2 DUP(00H)
	DD	2 DUP(00H)
	DD	00H
	DD	05H
xdata$x	ENDS
;	COMDAT xdata$x
xdata$x	SEGMENT
__ehfuncinfo$?_Get_second@?$_Compressed_pair@V?$allocator@V?$vector@HV?$allocator@H@std@@@std@@@std@@V?$_Vector_val@U?$_Simple_types@V?$vector@HV?$allocator@H@std@@@std@@@std@@@2@$00@std@@QBEABV?$_Vector_val@U?$_Simple_types@V?$vector@HV?$allocator@H@std@@@std@@@std@@@2@XZ DD 019930522H
	DD	00H
	DD	00H
	DD	2 DUP(00H)
	DD	2 DUP(00H)
	DD	00H
	DD	05H
xdata$x	ENDS
;	COMDAT xdata$x
xdata$x	SEGMENT
__ehfuncinfo$?_Get_second@?$_Compressed_pair@V?$allocator@V?$vector@HV?$allocator@H@std@@@std@@@std@@V?$_Vector_val@U?$_Simple_types@V?$vector@HV?$allocator@H@std@@@std@@@std@@@2@$00@std@@QAEAAV?$_Vector_val@U?$_Simple_types@V?$vector@HV?$allocator@H@std@@@std@@@std@@@2@XZ DD 019930522H
	DD	00H
	DD	00H
	DD	2 DUP(00H)
	DD	2 DUP(00H)
	DD	00H
	DD	05H
xdata$x	ENDS
;	COMDAT xdata$x
xdata$x	SEGMENT
__ehfuncinfo$?_Get_first@?$_Compressed_pair@V?$allocator@V?$vector@HV?$allocator@H@std@@@std@@@std@@V?$_Vector_val@U?$_Simple_types@V?$vector@HV?$allocator@H@std@@@std@@@std@@@2@$00@std@@QAEAAV?$allocator@V?$vector@HV?$allocator@H@std@@@std@@@2@XZ DD 019930522H
	DD	00H
	DD	00H
	DD	2 DUP(00H)
	DD	2 DUP(00H)
	DD	00H
	DD	05H
xdata$x	ENDS
;	COMDAT xdata$x
xdata$x	SEGMENT
__ehfuncinfo$?_Myend@?$_Vector_alloc@U?$_Vec_base_types@V?$vector@HV?$allocator@H@std@@@std@@V?$allocator@V?$vector@HV?$allocator@H@std@@@std@@@2@@std@@@std@@QBEABQAV?$vector@HV?$allocator@H@std@@@2@XZ DD 019930522H
	DD	00H
	DD	00H
	DD	2 DUP(00H)
	DD	2 DUP(00H)
	DD	00H
	DD	05H
xdata$x	ENDS
;	COMDAT xdata$x
xdata$x	SEGMENT
__ehfuncinfo$?_Myend@?$_Vector_alloc@U?$_Vec_base_types@V?$vector@HV?$allocator@H@std@@@std@@V?$allocator@V?$vector@HV?$allocator@H@std@@@std@@@2@@std@@@std@@QAEAAPAV?$vector@HV?$allocator@H@std@@@2@XZ DD 019930522H
	DD	00H
	DD	00H
	DD	2 DUP(00H)
	DD	2 DUP(00H)
	DD	00H
	DD	05H
xdata$x	ENDS
;	COMDAT xdata$x
xdata$x	SEGMENT
__ehfuncinfo$?_Mylast@?$_Vector_alloc@U?$_Vec_base_types@V?$vector@HV?$allocator@H@std@@@std@@V?$allocator@V?$vector@HV?$allocator@H@std@@@std@@@2@@std@@@std@@QBEABQAV?$vector@HV?$allocator@H@std@@@2@XZ DD 019930522H
	DD	00H
	DD	00H
	DD	2 DUP(00H)
	DD	2 DUP(00H)
	DD	00H
	DD	05H
xdata$x	ENDS
;	COMDAT xdata$x
xdata$x	SEGMENT
__ehfuncinfo$?_Mylast@?$_Vector_alloc@U?$_Vec_base_types@V?$vector@HV?$allocator@H@std@@@std@@V?$allocator@V?$vector@HV?$allocator@H@std@@@std@@@2@@std@@@std@@QAEAAPAV?$vector@HV?$allocator@H@std@@@2@XZ DD 019930522H
	DD	00H
	DD	00H
	DD	2 DUP(00H)
	DD	2 DUP(00H)
	DD	00H
	DD	05H
xdata$x	ENDS
;	COMDAT xdata$x
xdata$x	SEGMENT
__ehfuncinfo$?_Myfirst@?$_Vector_alloc@U?$_Vec_base_types@V?$vector@HV?$allocator@H@std@@@std@@V?$allocator@V?$vector@HV?$allocator@H@std@@@std@@@2@@std@@@std@@QBEABQAV?$vector@HV?$allocator@H@std@@@2@XZ DD 019930522H
	DD	00H
	DD	00H
	DD	2 DUP(00H)
	DD	2 DUP(00H)
	DD	00H
	DD	05H
xdata$x	ENDS
;	COMDAT xdata$x
xdata$x	SEGMENT
__ehfuncinfo$?_Myfirst@?$_Vector_alloc@U?$_Vec_base_types@V?$vector@HV?$allocator@H@std@@@std@@V?$allocator@V?$vector@HV?$allocator@H@std@@@std@@@2@@std@@@std@@QAEAAPAV?$vector@HV?$allocator@H@std@@@2@XZ DD 019930522H
	DD	00H
	DD	00H
	DD	2 DUP(00H)
	DD	2 DUP(00H)
	DD	00H
	DD	05H
xdata$x	ENDS
;	COMDAT xdata$x
xdata$x	SEGMENT
__ehfuncinfo$?_Get_data@?$_Vector_alloc@U?$_Vec_base_types@V?$vector@HV?$allocator@H@std@@@std@@V?$allocator@V?$vector@HV?$allocator@H@std@@@std@@@2@@std@@@std@@QBEABV?$_Vector_val@U?$_Simple_types@V?$vector@HV?$allocator@H@std@@@std@@@std@@@2@XZ DD 019930522H
	DD	00H
	DD	00H
	DD	2 DUP(00H)
	DD	2 DUP(00H)
	DD	00H
	DD	05H
xdata$x	ENDS
;	COMDAT xdata$x
xdata$x	SEGMENT
__ehfuncinfo$?_Get_data@?$_Vector_alloc@U?$_Vec_base_types@V?$vector@HV?$allocator@H@std@@@std@@V?$allocator@V?$vector@HV?$allocator@H@std@@@std@@@2@@std@@@std@@QAEAAV?$_Vector_val@U?$_Simple_types@V?$vector@HV?$allocator@H@std@@@std@@@std@@@2@XZ DD 019930522H
	DD	00H
	DD	00H
	DD	2 DUP(00H)
	DD	2 DUP(00H)
	DD	00H
	DD	05H
xdata$x	ENDS
;	COMDAT xdata$x
xdata$x	SEGMENT
__ehfuncinfo$?_Getal@?$_Vector_alloc@U?$_Vec_base_types@V?$vector@HV?$allocator@H@std@@@std@@V?$allocator@V?$vector@HV?$allocator@H@std@@@std@@@2@@std@@@std@@QAEAAV?$allocator@V?$vector@HV?$allocator@H@std@@@std@@@2@XZ DD 019930522H
	DD	00H
	DD	00H
	DD	2 DUP(00H)
	DD	2 DUP(00H)
	DD	00H
	DD	05H
xdata$x	ENDS
;	COMDAT xdata$x
xdata$x	SEGMENT
__ehfuncinfo$?_Myproxy@?$_Vector_alloc@U?$_Vec_base_types@V?$vector@HV?$allocator@H@std@@@std@@V?$allocator@V?$vector@HV?$allocator@H@std@@@std@@@2@@std@@@std@@QAEAAPAU_Container_proxy@2@XZ DD 019930522H
	DD	00H
	DD	00H
	DD	2 DUP(00H)
	DD	2 DUP(00H)
	DD	00H
	DD	05H
xdata$x	ENDS
;	COMDAT xdata$x
xdata$x	SEGMENT
__ehfuncinfo$??1?$_Vector_alloc@U?$_Vec_base_types@V?$vector@HV?$allocator@H@std@@@std@@V?$allocator@V?$vector@HV?$allocator@H@std@@@std@@@2@@std@@@std@@QAE@XZ DD 019930522H
	DD	00H
	DD	00H
	DD	2 DUP(00H)
	DD	2 DUP(00H)
	DD	00H
	DD	05H
xdata$x	ENDS
;	COMDAT xdata$x
xdata$x	SEGMENT
__ehfuncinfo$?miniMaxSum@@YAXV?$vector@HV?$allocator@H@std@@@std@@@Z DD 019930522H
	DD	07H
	DD	FLAT:__unwindtable$?miniMaxSum@@YAXV?$vector@HV?$allocator@H@std@@@std@@@Z
	DD	2 DUP(00H)
	DD	2 DUP(00H)
	DD	00H
	DD	01H
__unwindtable$?miniMaxSum@@YAXV?$vector@HV?$allocator@H@std@@@std@@@Z DD 0ffffffffH
	DD	FLAT:__unwindfunclet$?miniMaxSum@@YAXV?$vector@HV?$allocator@H@std@@@std@@@Z$0
	DD	00H
	DD	FLAT:__unwindfunclet$?miniMaxSum@@YAXV?$vector@HV?$allocator@H@std@@@std@@@Z$3
	DD	01H
	DD	FLAT:__unwindfunclet$?miniMaxSum@@YAXV?$vector@HV?$allocator@H@std@@@std@@@Z$6
	DD	02H
	DD	FLAT:__unwindfunclet$?miniMaxSum@@YAXV?$vector@HV?$allocator@H@std@@@std@@@Z$9
	DD	02H
	DD	FLAT:__unwindfunclet$?miniMaxSum@@YAXV?$vector@HV?$allocator@H@std@@@std@@@Z$12
	DD	02H
	DD	FLAT:__unwindfunclet$?miniMaxSum@@YAXV?$vector@HV?$allocator@H@std@@@std@@@Z$15
	DD	02H
	DD	FLAT:__unwindfunclet$?miniMaxSum@@YAXV?$vector@HV?$allocator@H@std@@@std@@@Z$20
xdata$x	ENDS
;	COMDAT xdata$x
xdata$x	SEGMENT
__unwindtable$?plusMinus@@YAXV?$vector@HV?$allocator@H@std@@@std@@@Z DD 0ffffffffH
	DD	FLAT:__unwindfunclet$?plusMinus@@YAXV?$vector@HV?$allocator@H@std@@@std@@@Z$0
__ehfuncinfo$?plusMinus@@YAXV?$vector@HV?$allocator@H@std@@@std@@@Z DD 019930522H
	DD	01H
	DD	FLAT:__unwindtable$?plusMinus@@YAXV?$vector@HV?$allocator@H@std@@@std@@@Z
	DD	2 DUP(00H)
	DD	2 DUP(00H)
	DD	00H
	DD	01H
xdata$x	ENDS
;	COMDAT xdata$x
xdata$x	SEGMENT
__unwindtable$?diagonalDifference@@YAHV?$vector@V?$vector@HV?$allocator@H@std@@@std@@V?$allocator@V?$vector@HV?$allocator@H@std@@@std@@@2@@std@@@Z DD 0ffffffffH
	DD	FLAT:__unwindfunclet$?diagonalDifference@@YAHV?$vector@V?$vector@HV?$allocator@H@std@@@std@@V?$allocator@V?$vector@HV?$allocator@H@std@@@std@@@2@@std@@@Z$0
__ehfuncinfo$?diagonalDifference@@YAHV?$vector@V?$vector@HV?$allocator@H@std@@@std@@V?$allocator@V?$vector@HV?$allocator@H@std@@@std@@@2@@std@@@Z DD 019930522H
	DD	01H
	DD	FLAT:__unwindtable$?diagonalDifference@@YAHV?$vector@V?$vector@HV?$allocator@H@std@@@std@@V?$allocator@V?$vector@HV?$allocator@H@std@@@std@@@2@@std@@@Z
	DD	2 DUP(00H)
	DD	2 DUP(00H)
	DD	00H
	DD	01H
xdata$x	ENDS
;	COMDAT xdata$x
xdata$x	SEGMENT
__ehfuncinfo$??$_Min_value@I@std@@YAABIABI0@Z DD 019930522H
	DD	00H
	DD	00H
	DD	2 DUP(00H)
	DD	2 DUP(00H)
	DD	00H
	DD	05H
xdata$x	ENDS
;	COMDAT xdata$x
xdata$x	SEGMENT
__ehfuncinfo$?_Orphan_me@_Iterator_base12@std@@QAEXXZ DD 019930522H
	DD	00H
	DD	00H
	DD	2 DUP(00H)
	DD	2 DUP(00H)
	DD	00H
	DD	05H
xdata$x	ENDS
;	COMDAT xdata$x
xdata$x	SEGMENT
__ehfuncinfo$?_Getpnext@_Iterator_base12@std@@QAEPAPAU12@XZ DD 019930522H
	DD	00H
	DD	00H
	DD	2 DUP(00H)
	DD	2 DUP(00H)
	DD	00H
	DD	05H
xdata$x	ENDS
;	COMDAT xdata$x
xdata$x	SEGMENT
__ehfuncinfo$?_Getcont@_Iterator_base12@std@@QBEPBU_Container_base12@2@XZ DD 019930522H
	DD	00H
	DD	00H
	DD	2 DUP(00H)
	DD	2 DUP(00H)
	DD	00H
	DD	05H
xdata$x	ENDS
;	COMDAT xdata$x
xdata$x	SEGMENT
__ehfuncinfo$?_Clrcont@_Iterator_base12@std@@QAEXXZ DD 019930522H
	DD	00H
	DD	00H
	DD	2 DUP(00H)
	DD	2 DUP(00H)
	DD	00H
	DD	05H
xdata$x	ENDS
;	COMDAT xdata$x
xdata$x	SEGMENT
__ehfuncinfo$?_Adopt@_Iterator_base12@std@@QAEXPBU_Container_base12@2@@Z DD 019930522H
	DD	00H
	DD	00H
	DD	2 DUP(00H)
	DD	2 DUP(00H)
	DD	00H
	DD	05H
xdata$x	ENDS
;	COMDAT xdata$x
xdata$x	SEGMENT
__ehfuncinfo$??1_Iterator_base12@std@@QAE@XZ DD 019930522H
	DD	00H
	DD	00H
	DD	2 DUP(00H)
	DD	2 DUP(00H)
	DD	00H
	DD	05H
xdata$x	ENDS
;	COMDAT xdata$x
xdata$x	SEGMENT
__ehfuncinfo$??4_Iterator_base12@std@@QAEAAU01@ABU01@@Z DD 019930522H
	DD	00H
	DD	00H
	DD	2 DUP(00H)
	DD	2 DUP(00H)
	DD	00H
	DD	05H
xdata$x	ENDS
;	COMDAT xdata$x
xdata$x	SEGMENT
__ehfuncinfo$??0_Iterator_base12@std@@QAE@ABU01@@Z DD 019930522H
	DD	00H
	DD	00H
	DD	2 DUP(00H)
	DD	2 DUP(00H)
	DD	00H
	DD	05H
xdata$x	ENDS
;	COMDAT xdata$x
xdata$x	SEGMENT
__ehfuncinfo$??0_Iterator_base12@std@@QAE@XZ DD 019930522H
	DD	00H
	DD	00H
	DD	2 DUP(00H)
	DD	2 DUP(00H)
	DD	00H
	DD	05H
xdata$x	ENDS
;	COMDAT xdata$x
xdata$x	SEGMENT
__ehfuncinfo$?_Orphan_all@_Container_base12@std@@QAEXXZ DD 019930522H
	DD	00H
	DD	00H
	DD	2 DUP(00H)
	DD	2 DUP(00H)
	DD	00H
	DD	05H
xdata$x	ENDS
;	COMDAT xdata$x
xdata$x	SEGMENT
__ehfuncinfo$?_Getpfirst@_Container_base12@std@@QBEPAPAU_Iterator_base12@2@XZ DD 019930522H
	DD	00H
	DD	00H
	DD	2 DUP(00H)
	DD	2 DUP(00H)
	DD	00H
	DD	05H
xdata$x	ENDS
;	COMDAT xdata$x
xdata$x	SEGMENT
__ehfuncinfo$??0_Container_proxy@std@@QAE@XZ DD 019930522H
	DD	00H
	DD	00H
	DD	2 DUP(00H)
	DD	2 DUP(00H)
	DD	00H
	DD	05H
xdata$x	ENDS
;	COMDAT xdata$x
xdata$x	SEGMENT
__ehfuncinfo$?eof@?$char_traits@D@std@@SAHXZ DD 019930522H
	DD	00H
	DD	00H
	DD	2 DUP(00H)
	DD	2 DUP(00H)
	DD	00H
	DD	05H
xdata$x	ENDS
;	COMDAT xdata$x
xdata$x	SEGMENT
__ehfuncinfo$?eq_int_type@?$char_traits@D@std@@SA_NABH0@Z DD 019930522H
	DD	00H
	DD	00H
	DD	2 DUP(00H)
	DD	2 DUP(00H)
	DD	00H
	DD	05H
xdata$x	ENDS
;	COMDAT xdata$x
xdata$x	SEGMENT
__ehfuncinfo$?length@?$char_traits@D@std@@SAIQBD@Z DD 019930522H
	DD	00H
	DD	00H
	DD	2 DUP(00H)
	DD	2 DUP(00H)
	DD	00H
	DD	05H
xdata$x	ENDS
;	COMDAT xdata$x
xdata$x	SEGMENT
__ehfuncinfo$?max@?$numeric_limits@H@std@@SAHXZ DD 019930522H
	DD	00H
	DD	00H
	DD	2 DUP(00H)
	DD	2 DUP(00H)
	DD	00H
	DD	05H
xdata$x	ENDS
;	COMDAT xdata$x
xdata$x	SEGMENT
__ehfuncinfo$??2@YAPAXIPAX@Z DD 019930522H
	DD	00H
	DD	00H
	DD	2 DUP(00H)
	DD	2 DUP(00H)
	DD	00H
	DD	05H
xdata$x	ENDS
; Function compile flags: /Odt
;	COMDAT __JustMyCode_Default
_TEXT	SEGMENT
__JustMyCode_Default PROC				; COMDAT
	push	ebp
	mov	ebp, esp
	pop	ebp
	ret	0
__JustMyCode_Default ENDP
_TEXT	ENDS
; Function compile flags: /Odtp /RTCsu /ZI
; File c:\program files (x86)\microsoft visual studio\2017\professional\vc\tools\msvc\14.16.27023\include\xutility
;	COMDAT ??$_Seek_wrapped@H@std@@YAXAAPAHQAH@Z
_TEXT	SEGMENT
__It$ = 8						; size = 4
__UIt$ = 12						; size = 4
??$_Seek_wrapped@H@std@@YAXAAPAHQAH@Z PROC		; std::_Seek_wrapped<int>, COMDAT

; 871  : 	{

	push	ebp
	mov	ebp, esp
	sub	esp, 192				; 000000c0H
	push	ebx
	push	esi
	push	edi
	lea	edi, DWORD PTR [ebp-192]
	mov	ecx, 48					; 00000030H
	mov	eax, -858993460				; ccccccccH
	rep stosd
	mov	ecx, OFFSET __DB64A6E0_xutility
	call	@__CheckForDebuggerJustMyCode@4

; 872  : 	_It = _UIt;

	mov	eax, DWORD PTR __It$[ebp]
	mov	ecx, DWORD PTR __UIt$[ebp]
	mov	DWORD PTR [eax], ecx

; 873  : 	}

	pop	edi
	pop	esi
	pop	ebx
	add	esp, 192				; 000000c0H
	cmp	ebp, esp
	call	__RTC_CheckEsp
	mov	esp, ebp
	pop	ebp
	ret	0
??$_Seek_wrapped@H@std@@YAXAAPAHQAH@Z ENDP		; std::_Seek_wrapped<int>
_TEXT	ENDS
; Function compile flags: /Odtp /RTCsu /ZI
; File c:\program files (x86)\microsoft visual studio\2017\professional\vc\tools\msvc\14.16.27023\include\xmemory
;	COMDAT ??$_Uninitialized_copy_al_unchecked@HHV?$allocator@H@std@@@std@@YAPAHQAH00AAV?$allocator@H@0@U_Really_trivial_ptr_iterator_tag@0@U?$integral_constant@_N$00@0@@Z
_TEXT	SEGMENT
__First$ = 8						; size = 4
__Last$ = 12						; size = 4
__Dest$ = 16						; size = 4
___formal$ = 20						; size = 4
___formal$ = 24						; size = 1
___formal$ = 28						; size = 1
??$_Uninitialized_copy_al_unchecked@HHV?$allocator@H@std@@@std@@YAPAHQAH00AAV?$allocator@H@0@U_Really_trivial_ptr_iterator_tag@0@U?$integral_constant@_N$00@0@@Z PROC ; std::_Uninitialized_copy_al_unchecked<int,int,std::allocator<int> >, COMDAT

; 201  : 	{	// copy [_First, _Last) to raw _Dest, using default _Alloc construct, memmove optimization

	push	ebp
	mov	ebp, esp
	sub	esp, 192				; 000000c0H
	push	ebx
	push	esi
	push	edi
	lea	edi, DWORD PTR [ebp-192]
	mov	ecx, 48					; 00000030H
	mov	eax, -858993460				; ccccccccH
	rep stosd
	mov	ecx, OFFSET __37C996BE_xmemory
	call	@__CheckForDebuggerJustMyCode@4

; 202  : 	return (_Copy_memmove(_First, _Last, _Dest));

	mov	eax, DWORD PTR __Dest$[ebp]
	push	eax
	mov	ecx, DWORD PTR __Last$[ebp]
	push	ecx
	mov	edx, DWORD PTR __First$[ebp]
	push	edx
	call	??$_Copy_memmove@PAHPAH@std@@YAPAHPAH00@Z ; std::_Copy_memmove<int *,int *>
	add	esp, 12					; 0000000cH

; 203  : 	}

	pop	edi
	pop	esi
	pop	ebx
	add	esp, 192				; 000000c0H
	cmp	ebp, esp
	call	__RTC_CheckEsp
	mov	esp, ebp
	pop	ebp
	ret	0
??$_Uninitialized_copy_al_unchecked@HHV?$allocator@H@std@@@std@@YAPAHQAH00AAV?$allocator@H@0@U_Really_trivial_ptr_iterator_tag@0@U?$integral_constant@_N$00@0@@Z ENDP ; std::_Uninitialized_copy_al_unchecked<int,int,std::allocator<int> >
_TEXT	ENDS
; Function compile flags: /Odtp /RTCsu /ZI
; File c:\program files (x86)\microsoft visual studio\2017\professional\vc\tools\msvc\14.16.27023\include\xutility
;	COMDAT ??$_Ptr_copy_cat@HH@std@@YA?AU_Really_trivial_ptr_iterator_tag@0@ABQAH0@Z
_TEXT	SEGMENT
___$ReturnUdt$ = 8					; size = 4
___formal$ = 12						; size = 4
___formal$ = 16						; size = 4
??$_Ptr_copy_cat@HH@std@@YA?AU_Really_trivial_ptr_iterator_tag@0@ABQAH0@Z PROC ; std::_Ptr_copy_cat<int,int>, COMDAT

; 1069 : 	{	// return pointer copy optimization category for pointers

	push	ebp
	mov	ebp, esp
	sub	esp, 192				; 000000c0H
	push	ebx
	push	esi
	push	edi
	lea	edi, DWORD PTR [ebp-192]
	mov	ecx, 48					; 00000030H
	mov	eax, -858993460				; ccccccccH
	rep stosd
	mov	ecx, OFFSET __DB64A6E0_xutility
	call	@__CheckForDebuggerJustMyCode@4

; 1070 : 	return {};

	mov	eax, DWORD PTR ___$ReturnUdt$[ebp]

; 1071 : 	}

	pop	edi
	pop	esi
	pop	ebx
	add	esp, 192				; 000000c0H
	cmp	ebp, esp
	call	__RTC_CheckEsp
	mov	esp, ebp
	pop	ebp
	ret	0
??$_Ptr_copy_cat@HH@std@@YA?AU_Really_trivial_ptr_iterator_tag@0@ABQAH0@Z ENDP ; std::_Ptr_copy_cat<int,int>
_TEXT	ENDS
; Function compile flags: /Odtp /RTCsu /ZI
; File c:\program files (x86)\microsoft visual studio\2017\professional\vc\tools\msvc\14.16.27023\include\xutility
;	COMDAT ??$_Get_unwrapped_n@HH$0A@@std@@YAPAHQAHH@Z
_TEXT	SEGMENT
__Src$ = 8						; size = 4
___formal$ = 12						; size = 4
??$_Get_unwrapped_n@HH$0A@@std@@YAPAHQAHH@Z PROC	; std::_Get_unwrapped_n<int,int,0>, COMDAT

; 808  : 	{

	push	ebp
	mov	ebp, esp
	sub	esp, 192				; 000000c0H
	push	ebx
	push	esi
	push	edi
	lea	edi, DWORD PTR [ebp-192]
	mov	ecx, 48					; 00000030H
	mov	eax, -858993460				; ccccccccH
	rep stosd
	mov	ecx, OFFSET __DB64A6E0_xutility
	call	@__CheckForDebuggerJustMyCode@4

; 809  : 	return (_Src);

	mov	eax, DWORD PTR __Src$[ebp]

; 810  : 	}

	pop	edi
	pop	esi
	pop	ebx
	add	esp, 192				; 000000c0H
	cmp	ebp, esp
	call	__RTC_CheckEsp
	mov	esp, ebp
	pop	ebp
	ret	0
??$_Get_unwrapped_n@HH$0A@@std@@YAPAHQAHH@Z ENDP	; std::_Get_unwrapped_n<int,int,0>
_TEXT	ENDS
; Function compile flags: /Odtp /RTCsu /ZI
; File c:\program files (x86)\microsoft visual studio\2017\professional\vc\tools\msvc\14.16.27023\include\xutility
;	COMDAT ??$_Idl_distance1@PAHPAH@std@@YAHABQAH0Urandom_access_iterator_tag@0@@Z
_TEXT	SEGMENT
__First$ = 8						; size = 4
__Last$ = 12						; size = 4
___formal$ = 16						; size = 1
??$_Idl_distance1@PAHPAH@std@@YAHABQAH0Urandom_access_iterator_tag@0@@Z PROC ; std::_Idl_distance1<int *,int *>, COMDAT

; 967  : 	{	// _Idl_distance for random-access iterators

	push	ebp
	mov	ebp, esp
	sub	esp, 192				; 000000c0H
	push	ebx
	push	esi
	push	edi
	lea	edi, DWORD PTR [ebp-192]
	mov	ecx, 48					; 00000030H
	mov	eax, -858993460				; ccccccccH
	rep stosd
	mov	ecx, OFFSET __DB64A6E0_xutility
	call	@__CheckForDebuggerJustMyCode@4

; 968  : 	return (static_cast<_Iter_diff_t<_Checked>>(_Last - _First));

	mov	eax, DWORD PTR __Last$[ebp]
	mov	ecx, DWORD PTR __First$[ebp]
	mov	eax, DWORD PTR [eax]
	sub	eax, DWORD PTR [ecx]
	sar	eax, 2

; 969  : 	}

	pop	edi
	pop	esi
	pop	ebx
	add	esp, 192				; 000000c0H
	cmp	ebp, esp
	call	__RTC_CheckEsp
	mov	esp, ebp
	pop	ebp
	ret	0
??$_Idl_distance1@PAHPAH@std@@YAHABQAH0Urandom_access_iterator_tag@0@@Z ENDP ; std::_Idl_distance1<int *,int *>
_TEXT	ENDS
; Function compile flags: /Odtp /RTCsu /ZI
; File c:\program files (x86)\microsoft visual studio\2017\professional\vc\tools\msvc\14.16.27023\include\xutility
;	COMDAT ??$_Idl_distance@PAHPAH@std@@YA@ABQAH0@Z
_TEXT	SEGMENT
$T1 = -197						; size = 1
__First$ = 8						; size = 4
__Last$ = 12						; size = 4
??$_Idl_distance@PAHPAH@std@@YA@ABQAH0@Z PROC		; std::_Idl_distance<int *,int *>, COMDAT

; 974  : 	{	// tries to get the distance between _First and _Last if they are random-access iterators

	push	ebp
	mov	ebp, esp
	sub	esp, 204				; 000000ccH
	push	ebx
	push	esi
	push	edi
	lea	edi, DWORD PTR [ebp-204]
	mov	ecx, 51					; 00000033H
	mov	eax, -858993460				; ccccccccH
	rep stosd
	mov	ecx, OFFSET __DB64A6E0_xutility
	call	@__CheckForDebuggerJustMyCode@4

; 975  : 	return (_Idl_distance1<_Checked>(_First, _Last, _Iter_cat_t<_Iter>()));

	movzx	eax, BYTE PTR $T1[ebp]
	push	eax
	mov	ecx, DWORD PTR __Last$[ebp]
	push	ecx
	mov	edx, DWORD PTR __First$[ebp]
	push	edx
	call	??$_Idl_distance1@PAHPAH@std@@YAHABQAH0Urandom_access_iterator_tag@0@@Z ; std::_Idl_distance1<int *,int *>
	add	esp, 12					; 0000000cH

; 976  : 	}

	pop	edi
	pop	esi
	pop	ebx
	add	esp, 204				; 000000ccH
	cmp	ebp, esp
	call	__RTC_CheckEsp
	mov	esp, ebp
	pop	ebp
	ret	0
??$_Idl_distance@PAHPAH@std@@YA@ABQAH0@Z ENDP		; std::_Idl_distance<int *,int *>
_TEXT	ENDS
; Function compile flags: /Odtp /RTCsu /ZI
; File c:\program files (x86)\microsoft visual studio\2017\professional\vc\tools\msvc\14.16.27023\include\xutility
;	COMDAT ??$_Get_unwrapped@H@std@@YAPAHQAH@Z
_TEXT	SEGMENT
__Ptr$ = 8						; size = 4
??$_Get_unwrapped@H@std@@YAPAHQAH@Z PROC		; std::_Get_unwrapped<int>, COMDAT

; 662  : 	{	// special case already-unwrapped pointers

	push	ebp
	mov	ebp, esp
	sub	esp, 192				; 000000c0H
	push	ebx
	push	esi
	push	edi
	lea	edi, DWORD PTR [ebp-192]
	mov	ecx, 48					; 00000030H
	mov	eax, -858993460				; ccccccccH
	rep stosd
	mov	ecx, OFFSET __DB64A6E0_xutility
	call	@__CheckForDebuggerJustMyCode@4

; 663  : 	return (_Ptr);

	mov	eax, DWORD PTR __Ptr$[ebp]

; 664  : 	}

	pop	edi
	pop	esi
	pop	ebx
	add	esp, 192				; 000000c0H
	cmp	ebp, esp
	call	__RTC_CheckEsp
	mov	esp, ebp
	pop	ebp
	ret	0
??$_Get_unwrapped@H@std@@YAPAHQAH@Z ENDP		; std::_Get_unwrapped<int>
_TEXT	ENDS
; Function compile flags: /Odtp /RTCsu /ZI
; File c:\program files (x86)\microsoft visual studio\2017\professional\vc\tools\msvc\14.16.27023\include\xstddef
;	COMDAT ??$?RAAHAAH@?$less@X@std@@QBE_NAAH0@Z
_TEXT	SEGMENT
tv65 = -208						; size = 4
_this$ = -8						; size = 4
__Left$ = 8						; size = 4
__Right$ = 12						; size = 4
??$?RAAHAAH@?$less@X@std@@QBE_NAAH0@Z PROC		; std::less<void>::operator()<int &,int &>, COMDAT
; _this$ = ecx

; 286  : 		{	// transparently apply operator< to operands

	push	ebp
	mov	ebp, esp
	sub	esp, 208				; 000000d0H
	push	ebx
	push	esi
	push	edi
	push	ecx
	lea	edi, DWORD PTR [ebp-208]
	mov	ecx, 52					; 00000034H
	mov	eax, -858993460				; ccccccccH
	rep stosd
	pop	ecx
	mov	DWORD PTR _this$[ebp], ecx
	mov	ecx, OFFSET __AA43626F_xstddef
	call	@__CheckForDebuggerJustMyCode@4

; 287  : 		return (static_cast<_Ty1&&>(_Left)

	mov	eax, DWORD PTR __Left$[ebp]
	mov	ecx, DWORD PTR __Right$[ebp]
	mov	edx, DWORD PTR [eax]
	cmp	edx, DWORD PTR [ecx]
	jge	SHORT $LN3@operator
	mov	DWORD PTR tv65[ebp], 1
	jmp	SHORT $LN4@operator
$LN3@operator:
	mov	DWORD PTR tv65[ebp], 0
$LN4@operator:
	mov	al, BYTE PTR tv65[ebp]

; 288  : 			< static_cast<_Ty2&&>(_Right));
; 289  : 		}

	pop	edi
	pop	esi
	pop	ebx
	add	esp, 208				; 000000d0H
	cmp	ebp, esp
	call	__RTC_CheckEsp
	mov	esp, ebp
	pop	ebp
	ret	8
??$?RAAHAAH@?$less@X@std@@QBE_NAAH0@Z ENDP		; std::less<void>::operator()<int &,int &>
_TEXT	ENDS
; Function compile flags: /Odtp /RTCsu /ZI
; File c:\program files (x86)\microsoft visual studio\2017\professional\vc\tools\msvc\14.16.27023\include\xutility
;	COMDAT ??$_Debug_lt_pred@AAU?$less@X@std@@AAHAAH@std@@YA_NAAU?$less@X@0@AAH1@Z
_TEXT	SEGMENT
__Result$ = -5						; size = 1
__Pred$ = 8						; size = 4
__Left$ = 12						; size = 4
__Right$ = 16						; size = 4
??$_Debug_lt_pred@AAU?$less@X@std@@AAHAAH@std@@YA_NAAU?$less@X@0@AAH1@Z PROC ; std::_Debug_lt_pred<std::less<void> &,int &,int &>, COMDAT

; 1109 : 	{	// test if _Pred(_Left, _Right) and _Pred is strict weak ordering

	push	ebp
	mov	ebp, esp
	sub	esp, 204				; 000000ccH
	push	ebx
	push	esi
	push	edi
	lea	edi, DWORD PTR [ebp-204]
	mov	ecx, 51					; 00000033H
	mov	eax, -858993460				; ccccccccH
	rep stosd
	mov	ecx, OFFSET __DB64A6E0_xutility
	call	@__CheckForDebuggerJustMyCode@4

; 1110 : 	const auto _Result = static_cast<bool>(_Pred(_Left, _Right));

	mov	eax, DWORD PTR __Right$[ebp]
	push	eax
	mov	ecx, DWORD PTR __Left$[ebp]
	push	ecx
	mov	ecx, DWORD PTR __Pred$[ebp]
	call	??$?RAAHAAH@?$less@X@std@@QBE_NAAH0@Z	; std::less<void>::operator()<int &,int &>
	mov	BYTE PTR __Result$[ebp], al

; 1111 : 	if (_Result)

	movzx	eax, BYTE PTR __Result$[ebp]
	test	eax, eax
	je	SHORT $LN8@Debug_lt_p
$LN4@Debug_lt_p:

; 1112 : 		{
; 1113 : 		_STL_VERIFY(!_Pred(_Right, _Left), "invalid comparator");

	mov	eax, DWORD PTR __Left$[ebp]
	push	eax
	mov	ecx, DWORD PTR __Right$[ebp]
	push	ecx
	mov	ecx, DWORD PTR __Pred$[ebp]
	call	??$?RAAHAAH@?$less@X@std@@QBE_NAAH0@Z	; std::less<void>::operator()<int &,int &>
	movzx	edx, al
	test	edx, edx
	jne	SHORT $LN7@Debug_lt_p
	jmp	SHORT $LN2@Debug_lt_p
$LN7@Debug_lt_p:
	mov	esi, esp
	push	OFFSET ??_C@_0BD@FEEMDEPI@invalid?5comparator@
	push	OFFSET ??_C@_02DKCKIIND@?$CFs@
	push	0
	push	1113					; 00000459H
	push	OFFSET ??_C@_0GM@FAFCIENC@c?3?2program?5files?5?$CIx86?$CJ?2microsof@
	push	2
	call	DWORD PTR __imp___CrtDbgReport
	add	esp, 24					; 00000018H
	cmp	esi, esp
	call	__RTC_CheckEsp
	cmp	eax, 1
	jne	SHORT $LN12@Debug_lt_p
	int	3
$LN12@Debug_lt_p:
	mov	esi, esp
	push	0
	push	1113					; 00000459H
	push	OFFSET ??_C@_1NI@CLIPCEJM@?$AAc?$AA?3?$AA?2?$AAp?$AAr?$AAo?$AAg?$AAr?$AAa?$AAm?$AA?5?$AAf?$AAi?$AAl?$AAe@
	push	OFFSET ??_C@_1CI@JONCLBEJ@?$AAs?$AAt?$AAd?$AA?3?$AA?3?$AA_?$AAD?$AAe?$AAb?$AAu?$AAg?$AA_?$AAl?$AAt?$AA_@
	push	OFFSET ??_C@_1CK@NDNHPKPI@?$AA?$CC?$AAi?$AAn?$AAv?$AAa?$AAl?$AAi?$AAd?$AA?5?$AAc?$AAo?$AAm?$AAp?$AAa?$AAr@
	call	DWORD PTR __imp___invalid_parameter
	add	esp, 20					; 00000014H
	cmp	esi, esp
	call	__RTC_CheckEsp
	xor	eax, eax
	jne	SHORT $LN7@Debug_lt_p
$LN2@Debug_lt_p:
	xor	eax, eax
	jne	SHORT $LN4@Debug_lt_p
$LN8@Debug_lt_p:

; 1114 : 		}
; 1115 : 
; 1116 : 	return (_Result);

	mov	al, BYTE PTR __Result$[ebp]

; 1117 : 	}

	pop	edi
	pop	esi
	pop	ebx
	add	esp, 204				; 000000ccH
	cmp	ebp, esp
	call	__RTC_CheckEsp
	mov	esp, ebp
	pop	ebp
	ret	0
??$_Debug_lt_pred@AAU?$less@X@std@@AAHAAH@std@@YA_NAAU?$less@X@0@AAH1@Z ENDP ; std::_Debug_lt_pred<std::less<void> &,int &,int &>
_TEXT	ENDS
; Function compile flags: /Odtp /RTCsu /ZI
; File c:\program files (x86)\microsoft visual studio\2017\professional\vc\tools\msvc\14.16.27023\include\xmemory
;	COMDAT ??$_Uninitialized_copy@PAHPAHV?$allocator@H@std@@@std@@YAPAHQAH0PAHAAV?$allocator@H@0@@Z
_TEXT	SEGMENT
$T1 = -249						; size = 1
$T2 = -237						; size = 1
__UDest$ = -36						; size = 4
__ULast$ = -24						; size = 4
__UFirst$ = -12						; size = 4
__$ArrayPad$ = -4					; size = 4
__First$ = 8						; size = 4
__Last$ = 12						; size = 4
__Dest$ = 16						; size = 4
__Al$ = 20						; size = 4
??$_Uninitialized_copy@PAHPAHV?$allocator@H@std@@@std@@YAPAHQAH0PAHAAV?$allocator@H@0@@Z PROC ; std::_Uninitialized_copy<int *,int *,std::allocator<int> >, COMDAT

; 209  : 	{	// copy [_First, _Last) to raw _Dest, using _Al

	push	ebp
	mov	ebp, esp
	sub	esp, 256				; 00000100H
	push	ebx
	push	esi
	push	edi
	lea	edi, DWORD PTR [ebp-256]
	mov	ecx, 64					; 00000040H
	mov	eax, -858993460				; ccccccccH
	rep stosd
	mov	eax, DWORD PTR ___security_cookie
	xor	eax, ebp
	mov	DWORD PTR __$ArrayPad$[ebp], eax
	mov	ecx, OFFSET __37C996BE_xmemory
	call	@__CheckForDebuggerJustMyCode@4

; 210  : 		// note: only called internally from elsewhere in the STL
; 211  : 	const auto _UFirst = _Get_unwrapped(_First);

	mov	eax, DWORD PTR __First$[ebp]
	push	eax
	call	??$_Get_unwrapped@H@std@@YAPAHQAH@Z	; std::_Get_unwrapped<int>
	add	esp, 4
	mov	DWORD PTR __UFirst$[ebp], eax

; 212  : 	const auto _ULast = _Get_unwrapped(_Last);

	mov	eax, DWORD PTR __Last$[ebp]
	push	eax
	call	??$_Get_unwrapped@H@std@@YAPAHQAH@Z	; std::_Get_unwrapped<int>
	add	esp, 4
	mov	DWORD PTR __ULast$[ebp], eax

; 213  : 	const auto _UDest = _Get_unwrapped_n(_Dest, _Idl_distance<_InIt>(_UFirst, _ULast));

	lea	eax, DWORD PTR __ULast$[ebp]
	push	eax
	lea	ecx, DWORD PTR __UFirst$[ebp]
	push	ecx
	call	??$_Idl_distance@PAHPAH@std@@YA@ABQAH0@Z ; std::_Idl_distance<int *,int *>
	add	esp, 8
	push	eax
	mov	edx, DWORD PTR __Dest$[ebp]
	push	edx
	call	??$_Get_unwrapped_n@HH$0A@@std@@YAPAHQAHH@Z ; std::_Get_unwrapped_n<int,int,0>
	add	esp, 8
	mov	DWORD PTR __UDest$[ebp], eax

; 214  : 	_Seek_wrapped(_Dest,

	movzx	eax, BYTE PTR $T2[ebp]
	push	eax
	lea	ecx, DWORD PTR __UDest$[ebp]
	push	ecx
	lea	edx, DWORD PTR __UFirst$[ebp]
	push	edx
	lea	eax, DWORD PTR $T1[ebp]
	push	eax
	call	??$_Ptr_copy_cat@HH@std@@YA?AU_Really_trivial_ptr_iterator_tag@0@ABQAH0@Z ; std::_Ptr_copy_cat<int,int>
	add	esp, 12					; 0000000cH
	mov	cl, BYTE PTR [eax]
	movzx	edx, cl
	push	edx
	mov	eax, DWORD PTR __Al$[ebp]
	push	eax
	mov	ecx, DWORD PTR __UDest$[ebp]
	push	ecx
	mov	edx, DWORD PTR __ULast$[ebp]
	push	edx
	mov	eax, DWORD PTR __UFirst$[ebp]
	push	eax
	call	??$_Uninitialized_copy_al_unchecked@HHV?$allocator@H@std@@@std@@YAPAHQAH00AAV?$allocator@H@0@U_Really_trivial_ptr_iterator_tag@0@U?$integral_constant@_N$00@0@@Z ; std::_Uninitialized_copy_al_unchecked<int,int,std::allocator<int> >
	add	esp, 24					; 00000018H
	push	eax
	lea	ecx, DWORD PTR __Dest$[ebp]
	push	ecx
	call	??$_Seek_wrapped@H@std@@YAXAAPAHQAH@Z	; std::_Seek_wrapped<int>
	add	esp, 8

; 215  : 		_Uninitialized_copy_al_unchecked(_UFirst, _ULast, _UDest, _Al,
; 216  : 			_Ptr_copy_cat(_UFirst, _UDest),
; 217  : 			_Uses_default_construct_t<_Alloc, decltype(_Unfancy(_UDest)), decltype(*_UFirst)>()));
; 218  : 
; 219  : 	return (_Dest);

	mov	eax, DWORD PTR __Dest$[ebp]

; 220  : 	}

	push	edx
	mov	ecx, ebp
	push	eax
	lea	edx, DWORD PTR $LN7@Uninitiali
	call	@_RTC_CheckStackVars@8
	pop	eax
	pop	edx
	pop	edi
	pop	esi
	pop	ebx
	mov	ecx, DWORD PTR __$ArrayPad$[ebp]
	xor	ecx, ebp
	call	@__security_check_cookie@4
	add	esp, 256				; 00000100H
	cmp	ebp, esp
	call	__RTC_CheckEsp
	mov	esp, ebp
	pop	ebp
	ret	0
$LN7@Uninitiali:
	DD	3
	DD	$LN6@Uninitiali
$LN6@Uninitiali:
	DD	-12					; fffffff4H
	DD	4
	DD	$LN3@Uninitiali
	DD	-24					; ffffffe8H
	DD	4
	DD	$LN4@Uninitiali
	DD	-36					; ffffffdcH
	DD	4
	DD	$LN5@Uninitiali
$LN5@Uninitiali:
	DB	95					; 0000005fH
	DB	85					; 00000055H
	DB	68					; 00000044H
	DB	101					; 00000065H
	DB	115					; 00000073H
	DB	116					; 00000074H
	DB	0
$LN4@Uninitiali:
	DB	95					; 0000005fH
	DB	85					; 00000055H
	DB	76					; 0000004cH
	DB	97					; 00000061H
	DB	115					; 00000073H
	DB	116					; 00000074H
	DB	0
$LN3@Uninitiali:
	DB	95					; 0000005fH
	DB	85					; 00000055H
	DB	70					; 00000046H
	DB	105					; 00000069H
	DB	114					; 00000072H
	DB	115					; 00000073H
	DB	116					; 00000074H
	DB	0
??$_Uninitialized_copy@PAHPAHV?$allocator@H@std@@@std@@YAPAHQAH0PAHAAV?$allocator@H@0@@Z ENDP ; std::_Uninitialized_copy<int *,int *,std::allocator<int> >
_TEXT	ENDS
; Function compile flags: /Odtp /RTCsu /ZI
; File c:\program files (x86)\microsoft visual studio\2017\professional\vc\tools\msvc\14.16.27023\include\xutility
;	COMDAT ??$_Distance1@PAH@std@@YAHPAH0Urandom_access_iterator_tag@0@@Z
_TEXT	SEGMENT
__First$ = 8						; size = 4
__Last$ = 12						; size = 4
___formal$ = 16						; size = 1
??$_Distance1@PAH@std@@YAHPAH0Urandom_access_iterator_tag@0@@Z PROC ; std::_Distance1<int *>, COMDAT

; 1234 : 	{	// return distance between iterators; random-access

	push	ebp
	mov	ebp, esp
	sub	esp, 192				; 000000c0H
	push	ebx
	push	esi
	push	edi
	lea	edi, DWORD PTR [ebp-192]
	mov	ecx, 48					; 00000030H
	mov	eax, -858993460				; ccccccccH
	rep stosd
	mov	ecx, OFFSET __DB64A6E0_xutility
	call	@__CheckForDebuggerJustMyCode@4

; 1235 : 	return (_Last - _First);

	mov	eax, DWORD PTR __Last$[ebp]
	sub	eax, DWORD PTR __First$[ebp]
	sar	eax, 2

; 1236 : 	}

	pop	edi
	pop	esi
	pop	ebx
	add	esp, 192				; 000000c0H
	cmp	ebp, esp
	call	__RTC_CheckEsp
	mov	esp, ebp
	pop	ebp
	ret	0
??$_Distance1@PAH@std@@YAHPAH0Urandom_access_iterator_tag@0@@Z ENDP ; std::_Distance1<int *>
_TEXT	ENDS
; Function compile flags: /Odtp /RTCsu /ZI
; File c:\program files (x86)\microsoft visual studio\2017\professional\vc\tools\msvc\14.16.27023\include\xmemory0
;	COMDAT ??$_Const_cast@$$CBH@std@@YA@PBH@Z
_TEXT	SEGMENT
__Ptr$ = 8						; size = 4
??$_Const_cast@$$CBH@std@@YA@PBH@Z PROC			; std::_Const_cast<int const >, COMDAT

; 386  : 	{	// remove constness from a plain pointer

	push	ebp
	mov	ebp, esp
	sub	esp, 192				; 000000c0H
	push	ebx
	push	esi
	push	edi
	lea	edi, DWORD PTR [ebp-192]
	mov	ecx, 48					; 00000030H
	mov	eax, -858993460				; ccccccccH
	rep stosd
	mov	ecx, OFFSET __0A3767B1_xmemory0
	call	@__CheckForDebuggerJustMyCode@4

; 387  : 	return (const_cast<remove_const_t<_Ty> *>(_Ptr));

	mov	eax, DWORD PTR __Ptr$[ebp]

; 388  : 	}

	pop	edi
	pop	esi
	pop	ebx
	add	esp, 192				; 000000c0H
	cmp	ebp, esp
	call	__RTC_CheckEsp
	mov	esp, ebp
	pop	ebp
	ret	0
??$_Const_cast@$$CBH@std@@YA@PBH@Z ENDP			; std::_Const_cast<int const >
_TEXT	ENDS
; Function compile flags: /Odtp /RTCsu /ZI
; File c:\program files (x86)\microsoft visual studio\2017\professional\vc\tools\msvc\14.16.27023\include\xmemory0
;	COMDAT ??$destroy@V?$vector@HV?$allocator@H@std@@@std@@@?$_Default_allocator_traits@V?$allocator@V?$vector@HV?$allocator@H@std@@@std@@@std@@@std@@SAXAAV?$allocator@V?$vector@HV?$allocator@H@std@@@std@@@1@QAV?$vector@HV?$allocator@H@std@@@1@@Z
_TEXT	SEGMENT
___formal$ = 8						; size = 4
__Ptr$ = 12						; size = 4
??$destroy@V?$vector@HV?$allocator@H@std@@@std@@@?$_Default_allocator_traits@V?$allocator@V?$vector@HV?$allocator@H@std@@@std@@@std@@@std@@SAXAAV?$allocator@V?$vector@HV?$allocator@H@std@@@std@@@1@QAV?$vector@HV?$allocator@H@std@@@1@@Z PROC ; std::_Default_allocator_traits<std::allocator<std::vector<int,std::allocator<int> > > >::destroy<std::vector<int,std::allocator<int> > >, COMDAT

; 886  : 		{	// destroy object at _Ptr

	push	ebp
	mov	ebp, esp
	sub	esp, 192				; 000000c0H
	push	ebx
	push	esi
	push	edi
	lea	edi, DWORD PTR [ebp-192]
	mov	ecx, 48					; 00000030H
	mov	eax, -858993460				; ccccccccH
	rep stosd
	mov	ecx, OFFSET __0A3767B1_xmemory0
	call	@__CheckForDebuggerJustMyCode@4

; 887  : 		_Ptr->~_Uty();

	push	0
	mov	ecx, DWORD PTR __Ptr$[ebp]
	call	??_G?$vector@HV?$allocator@H@std@@@std@@QAEPAXI@Z

; 888  : 		}

	pop	edi
	pop	esi
	pop	ebx
	add	esp, 192				; 000000c0H
	cmp	ebp, esp
	call	__RTC_CheckEsp
	mov	esp, ebp
	pop	ebp
	ret	0
??$destroy@V?$vector@HV?$allocator@H@std@@@std@@@?$_Default_allocator_traits@V?$allocator@V?$vector@HV?$allocator@H@std@@@std@@@std@@@std@@SAXAAV?$allocator@V?$vector@HV?$allocator@H@std@@@std@@@1@QAV?$vector@HV?$allocator@H@std@@@1@@Z ENDP ; std::_Default_allocator_traits<std::allocator<std::vector<int,std::allocator<int> > > >::destroy<std::vector<int,std::allocator<int> > >
_TEXT	ENDS
; Function compile flags: /Odtp /RTCsu /ZI
; File c:\program files (x86)\microsoft visual studio\2017\professional\vc\tools\msvc\14.16.27023\include\xstddef
;	COMDAT ??$_Unfancy@V?$vector@HV?$allocator@H@std@@@std@@@std@@YAPAV?$vector@HV?$allocator@H@std@@@0@PAV10@@Z
_TEXT	SEGMENT
__Ptr$ = 8						; size = 4
??$_Unfancy@V?$vector@HV?$allocator@H@std@@@std@@@std@@YAPAV?$vector@HV?$allocator@H@std@@@0@PAV10@@Z PROC ; std::_Unfancy<std::vector<int,std::allocator<int> > >, COMDAT

; 345  : 	{	// do nothing for plain pointers

	push	ebp
	mov	ebp, esp
	sub	esp, 192				; 000000c0H
	push	ebx
	push	esi
	push	edi
	lea	edi, DWORD PTR [ebp-192]
	mov	ecx, 48					; 00000030H
	mov	eax, -858993460				; ccccccccH
	rep stosd
	mov	ecx, OFFSET __AA43626F_xstddef
	call	@__CheckForDebuggerJustMyCode@4

; 346  : 	return (_Ptr);

	mov	eax, DWORD PTR __Ptr$[ebp]

; 347  : 	}

	pop	edi
	pop	esi
	pop	ebx
	add	esp, 192				; 000000c0H
	cmp	ebp, esp
	call	__RTC_CheckEsp
	mov	esp, ebp
	pop	ebp
	ret	0
??$_Unfancy@V?$vector@HV?$allocator@H@std@@@std@@@std@@YAPAV?$vector@HV?$allocator@H@std@@@0@PAV10@@Z ENDP ; std::_Unfancy<std::vector<int,std::allocator<int> > >
_TEXT	ENDS
; Function compile flags: /Odtp /RTCsu /ZI
; File c:\program files (x86)\microsoft visual studio\2017\professional\vc\tools\msvc\14.16.27023\include\xutility
;	COMDAT ??$_Copy_memmove@PAHPAH@std@@YAPAHPAH00@Z
_TEXT	SEGMENT
__Count$ = -44						; size = 4
__Dest_ch$ = -32					; size = 4
__Last_ch$ = -20					; size = 4
__First_ch$ = -8					; size = 4
__First$ = 8						; size = 4
__Last$ = 12						; size = 4
__Dest$ = 16						; size = 4
??$_Copy_memmove@PAHPAH@std@@YAPAHPAH00@Z PROC		; std::_Copy_memmove<int *,int *>, COMDAT

; 2398 : 	{	// implement copy-like function as memmove

	push	ebp
	mov	ebp, esp
	sub	esp, 240				; 000000f0H
	push	ebx
	push	esi
	push	edi
	lea	edi, DWORD PTR [ebp-240]
	mov	ecx, 60					; 0000003cH
	mov	eax, -858993460				; ccccccccH
	rep stosd
	mov	ecx, OFFSET __DB64A6E0_xutility
	call	@__CheckForDebuggerJustMyCode@4

; 2399 : 	const char * const _First_ch = const_cast<const char *>(reinterpret_cast<const volatile char *>(_First));

	mov	eax, DWORD PTR __First$[ebp]
	mov	DWORD PTR __First_ch$[ebp], eax

; 2400 : 	const char * const _Last_ch = const_cast<const char *>(reinterpret_cast<const volatile char *>(_Last));

	mov	eax, DWORD PTR __Last$[ebp]
	mov	DWORD PTR __Last_ch$[ebp], eax

; 2401 : 	char * const _Dest_ch = const_cast<char *>(reinterpret_cast<volatile char *>(_Dest));

	mov	eax, DWORD PTR __Dest$[ebp]
	mov	DWORD PTR __Dest_ch$[ebp], eax

; 2402 : 	const auto _Count = static_cast<size_t>(_Last_ch - _First_ch);

	mov	eax, DWORD PTR __Last_ch$[ebp]
	sub	eax, DWORD PTR __First_ch$[ebp]
	mov	DWORD PTR __Count$[ebp], eax

; 2403 : 	_CSTD memmove(_Dest_ch, _First_ch, _Count);

	mov	eax, DWORD PTR __Count$[ebp]
	push	eax
	mov	ecx, DWORD PTR __First_ch$[ebp]
	push	ecx
	mov	edx, DWORD PTR __Dest_ch$[ebp]
	push	edx
	call	_memmove
	add	esp, 12					; 0000000cH

; 2404 : 	return (reinterpret_cast<_OutIt>(_Dest_ch + _Count));

	mov	eax, DWORD PTR __Dest_ch$[ebp]
	add	eax, DWORD PTR __Count$[ebp]

; 2405 : 	}

	pop	edi
	pop	esi
	pop	ebx
	add	esp, 240				; 000000f0H
	cmp	ebp, esp
	call	__RTC_CheckEsp
	mov	esp, ebp
	pop	ebp
	ret	0
??$_Copy_memmove@PAHPAH@std@@YAPAHPAH00@Z ENDP		; std::_Copy_memmove<int *,int *>
_TEXT	ENDS
; Function compile flags: /Odtp /RTCsu /ZI
; File c:\program files (x86)\microsoft visual studio\2017\professional\vc\tools\msvc\14.16.27023\include\xstddef
;	COMDAT ??$?RAA_KAAH@?$plus@X@std@@QBE_KAA_KAAH@Z
_TEXT	SEGMENT
_this$ = -8						; size = 4
__Left$ = 8						; size = 4
__Right$ = 12						; size = 4
??$?RAA_KAAH@?$plus@X@std@@QBE_KAA_KAAH@Z PROC		; std::plus<void>::operator()<unsigned __int64 &,int &>, COMDAT
; _this$ = ecx

; 184  : 		{	// transparently apply operator+ to operands

	push	ebp
	mov	ebp, esp
	sub	esp, 204				; 000000ccH
	push	ebx
	push	esi
	push	edi
	push	ecx
	lea	edi, DWORD PTR [ebp-204]
	mov	ecx, 51					; 00000033H
	mov	eax, -858993460				; ccccccccH
	rep stosd
	pop	ecx
	mov	DWORD PTR _this$[ebp], ecx
	mov	ecx, OFFSET __AA43626F_xstddef
	call	@__CheckForDebuggerJustMyCode@4

; 185  : 		return (static_cast<_Ty1&&>(_Left)

	mov	eax, DWORD PTR __Right$[ebp]
	mov	eax, DWORD PTR [eax]
	cdq
	mov	ecx, DWORD PTR __Left$[ebp]
	add	eax, DWORD PTR [ecx]
	adc	edx, DWORD PTR [ecx+4]

; 186  : 			+ static_cast<_Ty2&&>(_Right));
; 187  : 		}

	pop	edi
	pop	esi
	pop	ebx
	add	esp, 204				; 000000ccH
	cmp	ebp, esp
	call	__RTC_CheckEsp
	mov	esp, ebp
	pop	ebp
	ret	8
??$?RAA_KAAH@?$plus@X@std@@QBE_KAA_KAAH@Z ENDP		; std::plus<void>::operator()<unsigned __int64 &,int &>
_TEXT	ENDS
; Function compile flags: /Odtp /RTCsu /ZI
; File c:\program files (x86)\microsoft visual studio\2017\professional\vc\tools\msvc\14.16.27023\include\xutility
;	COMDAT ??$_Find_unchecked1@PAHH@std@@YAPAHPAHQAHABHU?$integral_constant@_N$0A@@0@@Z
_TEXT	SEGMENT
__First$ = 8						; size = 4
__Last$ = 12						; size = 4
__Val$ = 16						; size = 4
___formal$ = 20						; size = 1
??$_Find_unchecked1@PAHH@std@@YAPAHPAHQAHABHU?$integral_constant@_N$0A@@0@@Z PROC ; std::_Find_unchecked1<int *,int>, COMDAT

; 3518 : 	{	// find first matching _Val

	push	ebp
	mov	ebp, esp
	sub	esp, 192				; 000000c0H
	push	ebx
	push	esi
	push	edi
	lea	edi, DWORD PTR [ebp-192]
	mov	ecx, 48					; 00000030H
	mov	eax, -858993460				; ccccccccH
	rep stosd
	mov	ecx, OFFSET __DB64A6E0_xutility
	call	@__CheckForDebuggerJustMyCode@4

; 3519 : 	for (; _First != _Last; ++_First)

	jmp	SHORT $LN4@Find_unche
$LN2@Find_unche:
	mov	eax, DWORD PTR __First$[ebp]
	add	eax, 4
	mov	DWORD PTR __First$[ebp], eax
$LN4@Find_unche:
	mov	eax, DWORD PTR __First$[ebp]
	cmp	eax, DWORD PTR __Last$[ebp]
	je	SHORT $LN3@Find_unche

; 3520 : 		if (*_First == _Val)

	mov	eax, DWORD PTR __First$[ebp]
	mov	ecx, DWORD PTR __Val$[ebp]
	mov	edx, DWORD PTR [eax]
	cmp	edx, DWORD PTR [ecx]
	jne	SHORT $LN5@Find_unche

; 3521 : 			break;

	jmp	SHORT $LN3@Find_unche
$LN5@Find_unche:

; 3522 : 	return (_First);

	jmp	SHORT $LN2@Find_unche
$LN3@Find_unche:
	mov	eax, DWORD PTR __First$[ebp]

; 3523 : 	}

	pop	edi
	pop	esi
	pop	ebx
	add	esp, 192				; 000000c0H
	cmp	ebp, esp
	call	__RTC_CheckEsp
	mov	esp, ebp
	pop	ebp
	ret	0
??$_Find_unchecked1@PAHH@std@@YAPAHPAHQAHABHU?$integral_constant@_N$0A@@0@@Z ENDP ; std::_Find_unchecked1<int *,int>
_TEXT	ENDS
; Function compile flags: /Odtp /RTCsu /ZI
; File c:\program files (x86)\microsoft visual studio\2017\professional\vc\tools\msvc\14.16.27023\include\algorithm
;	COMDAT ??$_Max_element_unchecked@PAHU?$less@X@std@@@std@@YAPAHPAH0U?$less@X@0@@Z
_TEXT	SEGMENT
__Found$ = -8						; size = 4
__First$ = 8						; size = 4
__Last$ = 12						; size = 4
__Pred$ = 16						; size = 1
??$_Max_element_unchecked@PAHU?$less@X@std@@@std@@YAPAHPAH0U?$less@X@0@@Z PROC ; std::_Max_element_unchecked<int *,std::less<void> >, COMDAT

; 5160 : 	{	// find largest element, using _Pred

	push	ebp
	mov	ebp, esp
	sub	esp, 204				; 000000ccH
	push	ebx
	push	esi
	push	edi
	lea	edi, DWORD PTR [ebp-204]
	mov	ecx, 51					; 00000033H
	mov	eax, -858993460				; ccccccccH
	rep stosd
	mov	ecx, OFFSET __FC232AAC_algorithm
	call	@__CheckForDebuggerJustMyCode@4

; 5161 : 	_FwdIt _Found = _First;

	mov	eax, DWORD PTR __First$[ebp]
	mov	DWORD PTR __Found$[ebp], eax

; 5162 : 	if (_First != _Last)

	mov	eax, DWORD PTR __First$[ebp]
	cmp	eax, DWORD PTR __Last$[ebp]
	je	SHORT $LN4@Max_elemen
$LN2@Max_elemen:

; 5163 : 		{
; 5164 : 		while (++_First != _Last)

	mov	eax, DWORD PTR __First$[ebp]
	add	eax, 4
	mov	DWORD PTR __First$[ebp], eax
	mov	ecx, DWORD PTR __First$[ebp]
	cmp	ecx, DWORD PTR __Last$[ebp]
	je	SHORT $LN4@Max_elemen

; 5165 : 			{
; 5166 : 			if (_DEBUG_LT_PRED(_Pred, *_Found, *_First))

	mov	eax, DWORD PTR __First$[ebp]
	push	eax
	mov	ecx, DWORD PTR __Found$[ebp]
	push	ecx
	lea	edx, DWORD PTR __Pred$[ebp]
	push	edx
	call	??$_Debug_lt_pred@AAU?$less@X@std@@AAHAAH@std@@YA_NAAU?$less@X@0@AAH1@Z ; std::_Debug_lt_pred<std::less<void> &,int &,int &>
	add	esp, 12					; 0000000cH
	movzx	eax, al
	test	eax, eax
	je	SHORT $LN5@Max_elemen

; 5167 : 				{
; 5168 : 				_Found = _First;

	mov	eax, DWORD PTR __First$[ebp]
	mov	DWORD PTR __Found$[ebp], eax
$LN5@Max_elemen:

; 5169 : 				}
; 5170 : 			}

	jmp	SHORT $LN2@Max_elemen
$LN4@Max_elemen:

; 5171 : 		}
; 5172 : 
; 5173 : 	return (_Found);

	mov	eax, DWORD PTR __Found$[ebp]

; 5174 : 	}

	pop	edi
	pop	esi
	pop	ebx
	add	esp, 204				; 000000ccH
	cmp	ebp, esp
	call	__RTC_CheckEsp
	mov	esp, ebp
	pop	ebp
	ret	0
??$_Max_element_unchecked@PAHU?$less@X@std@@@std@@YAPAHPAH0U?$less@X@0@@Z ENDP ; std::_Max_element_unchecked<int *,std::less<void> >
_TEXT	ENDS
; Function compile flags: /Odtp /RTCsu /ZI
; File c:\program files (x86)\microsoft visual studio\2017\professional\vc\tools\msvc\14.16.27023\include\xutility
;	COMDAT ??$_Pass_fn@U?$less@X@std@@$0A@@std@@YA?AU?$less@X@0@U10@@Z
_TEXT	SEGMENT
__Val$ = 8						; size = 1
??$_Pass_fn@U?$less@X@std@@$0A@@std@@YA?AU?$less@X@0@U10@@Z PROC ; std::_Pass_fn<std::less<void>,0>, COMDAT

; 380  : 	{	// pass functor by value

	push	ebp
	mov	ebp, esp
	sub	esp, 192				; 000000c0H
	push	ebx
	push	esi
	push	edi
	lea	edi, DWORD PTR [ebp-192]
	mov	ecx, 48					; 00000030H
	mov	eax, -858993460				; ccccccccH
	rep stosd
	mov	ecx, OFFSET __DB64A6E0_xutility
	call	@__CheckForDebuggerJustMyCode@4

; 381  : 	return (_Val);

	mov	al, BYTE PTR __Val$[ebp]

; 382  : 	}

	pop	edi
	pop	esi
	pop	ebx
	add	esp, 192				; 000000c0H
	cmp	ebp, esp
	call	__RTC_CheckEsp
	mov	esp, ebp
	pop	ebp
	ret	0
??$_Pass_fn@U?$less@X@std@@$0A@@std@@YA?AU?$less@X@0@U10@@Z ENDP ; std::_Pass_fn<std::less<void>,0>
_TEXT	ENDS
; Function compile flags: /Odtp /RTCsu /ZI
; File c:\program files (x86)\microsoft visual studio\2017\professional\vc\tools\msvc\14.16.27023\include\vector
;	COMDAT ??$_Ucopy@PAH@?$vector@HV?$allocator@H@std@@@std@@AAEPAHPAH00@Z
_TEXT	SEGMENT
_this$ = -8						; size = 4
__First$ = 8						; size = 4
__Last$ = 12						; size = 4
__Dest$ = 16						; size = 4
??$_Ucopy@PAH@?$vector@HV?$allocator@H@std@@@std@@AAEPAHPAH00@Z PROC ; std::vector<int,std::allocator<int> >::_Ucopy<int *>, COMDAT
; _this$ = ecx

; 1822 : 		{	// copy [_First, _Last) to raw _Dest, using allocator

	push	ebp
	mov	ebp, esp
	sub	esp, 204				; 000000ccH
	push	ebx
	push	esi
	push	edi
	push	ecx
	lea	edi, DWORD PTR [ebp-204]
	mov	ecx, 51					; 00000033H
	mov	eax, -858993460				; ccccccccH
	rep stosd
	pop	ecx
	mov	DWORD PTR _this$[ebp], ecx
	mov	ecx, OFFSET __2D4BA300_vector
	call	@__CheckForDebuggerJustMyCode@4

; 1823 : 		return (_Uninitialized_copy(_First, _Last, _Dest, this->_Getal()));

	mov	ecx, DWORD PTR _this$[ebp]
	call	?_Getal@?$_Vector_alloc@U?$_Vec_base_types@HV?$allocator@H@std@@@std@@@std@@QAEAAV?$allocator@H@2@XZ ; std::_Vector_alloc<std::_Vec_base_types<int,std::allocator<int> > >::_Getal
	push	eax
	mov	eax, DWORD PTR __Dest$[ebp]
	push	eax
	mov	ecx, DWORD PTR __Last$[ebp]
	push	ecx
	mov	edx, DWORD PTR __First$[ebp]
	push	edx
	call	??$_Uninitialized_copy@PAHPAHV?$allocator@H@std@@@std@@YAPAHQAH0PAHAAV?$allocator@H@0@@Z ; std::_Uninitialized_copy<int *,int *,std::allocator<int> >
	add	esp, 16					; 00000010H

; 1824 : 		}

	pop	edi
	pop	esi
	pop	ebx
	add	esp, 204				; 000000ccH
	cmp	ebp, esp
	call	__RTC_CheckEsp
	mov	esp, ebp
	pop	ebp
	ret	12					; 0000000cH
??$_Ucopy@PAH@?$vector@HV?$allocator@H@std@@@std@@AAEPAHPAH00@Z ENDP ; std::vector<int,std::allocator<int> >::_Ucopy<int *>
_TEXT	ENDS
; Function compile flags: /Odtp /RTCsu /ZI
; File c:\program files (x86)\microsoft visual studio\2017\professional\vc\tools\msvc\14.16.27023\include\xutility
;	COMDAT ??$distance@PAH@std@@YAHPAH0@Z
_TEXT	SEGMENT
$T1 = -197						; size = 1
__First$ = 8						; size = 4
__Last$ = 12						; size = 4
??$distance@PAH@std@@YAHPAH0@Z PROC			; std::distance<int *>, COMDAT

; 1240 : 	{	// return distance between iterators

	push	ebp
	mov	ebp, esp
	sub	esp, 204				; 000000ccH
	push	ebx
	push	esi
	push	edi
	lea	edi, DWORD PTR [ebp-204]
	mov	ecx, 51					; 00000033H
	mov	eax, -858993460				; ccccccccH
	rep stosd
	mov	ecx, OFFSET __DB64A6E0_xutility
	call	@__CheckForDebuggerJustMyCode@4

; 1241 : 	return (_Distance1(_First, _Last, _Iter_cat_t<_InIt>()));

	movzx	eax, BYTE PTR $T1[ebp]
	push	eax
	mov	ecx, DWORD PTR __Last$[ebp]
	push	ecx
	mov	edx, DWORD PTR __First$[ebp]
	push	edx
	call	??$_Distance1@PAH@std@@YAHPAH0Urandom_access_iterator_tag@0@@Z ; std::_Distance1<int *>
	add	esp, 12					; 0000000cH

; 1242 : 	}

	pop	edi
	pop	esi
	pop	ebx
	add	esp, 204				; 000000ccH
	cmp	ebp, esp
	call	__RTC_CheckEsp
	mov	esp, ebp
	pop	ebp
	ret	0
??$distance@PAH@std@@YAHPAH0@Z ENDP			; std::distance<int *>
_TEXT	ENDS
; Function compile flags: /Odtp /RTCsu /ZI
; File c:\program files (x86)\microsoft visual studio\2017\professional\vc\tools\msvc\14.16.27023\include\xutility
;	COMDAT ??$_Adl_verify_range1@V?$_Vector_iterator@V?$_Vector_val@U?$_Simple_types@H@std@@@std@@@std@@V12@@std@@YAXABV?$_Vector_iterator@V?$_Vector_val@U?$_Simple_types@H@std@@@std@@@0@0U?$integral_constant@_N$00@0@@Z
_TEXT	SEGMENT
__First$ = 8						; size = 4
__Last$ = 12						; size = 4
___formal$ = 16						; size = 1
??$_Adl_verify_range1@V?$_Vector_iterator@V?$_Vector_val@U?$_Simple_types@H@std@@@std@@@std@@V12@@std@@YAXABV?$_Vector_iterator@V?$_Vector_val@U?$_Simple_types@H@std@@@std@@@0@0U?$integral_constant@_N$00@0@@Z PROC ; std::_Adl_verify_range1<std::_Vector_iterator<std::_Vector_val<std::_Simple_types<int> > >,std::_Vector_iterator<std::_Vector_val<std::_Simple_types<int> > > >, COMDAT

; 602  : 	{	// check that [_First, _Last) forms an iterator range

	push	ebp
	mov	ebp, esp
	sub	esp, 192				; 000000c0H
	push	ebx
	push	esi
	push	edi
	lea	edi, DWORD PTR [ebp-192]
	mov	ecx, 48					; 00000030H
	mov	eax, -858993460				; ccccccccH
	rep stosd
	mov	ecx, OFFSET __DB64A6E0_xutility
	call	@__CheckForDebuggerJustMyCode@4

; 603  : 	_Verify_range(_First, _Last);

	mov	eax, DWORD PTR __Last$[ebp]
	push	eax
	mov	ecx, DWORD PTR __First$[ebp]
	push	ecx
	call	?_Verify_range@std@@YAXABV?$_Vector_const_iterator@V?$_Vector_val@U?$_Simple_types@H@std@@@std@@@1@0@Z ; std::_Verify_range
	add	esp, 8

; 604  : 	}

	pop	edi
	pop	esi
	pop	ebx
	add	esp, 192				; 000000c0H
	cmp	ebp, esp
	call	__RTC_CheckEsp
	mov	esp, ebp
	pop	ebp
	ret	0
??$_Adl_verify_range1@V?$_Vector_iterator@V?$_Vector_val@U?$_Simple_types@H@std@@@std@@@std@@V12@@std@@YAXABV?$_Vector_iterator@V?$_Vector_val@U?$_Simple_types@H@std@@@std@@@0@0U?$integral_constant@_N$00@0@@Z ENDP ; std::_Adl_verify_range1<std::_Vector_iterator<std::_Vector_val<std::_Simple_types<int> > >,std::_Vector_iterator<std::_Vector_val<std::_Simple_types<int> > > >
_TEXT	ENDS
; Function compile flags: /Odtp /RTCsu /ZI
; File c:\program files (x86)\microsoft visual studio\2017\professional\vc\tools\msvc\14.16.27023\include\xutility
;	COMDAT ??$?0ABV?$allocator@H@std@@$$V@?$_Compressed_pair@V?$allocator@H@std@@V?$_Vector_val@U?$_Simple_types@H@std@@@2@$00@std@@QAE@U_One_then_variadic_args_t@1@ABV?$allocator@H@1@@Z
_TEXT	SEGMENT
_this$ = -8						; size = 4
___formal$ = 8						; size = 1
__Val1$ = 12						; size = 4
??$?0ABV?$allocator@H@std@@$$V@?$_Compressed_pair@V?$allocator@H@std@@V?$_Vector_val@U?$_Simple_types@H@std@@@2@$00@std@@QAE@U_One_then_variadic_args_t@1@ABV?$allocator@H@1@@Z PROC ; std::_Compressed_pair<std::allocator<int>,std::_Vector_val<std::_Simple_types<int> >,1>::_Compressed_pair<std::allocator<int>,std::_Vector_val<std::_Simple_types<int> >,1><std::allocator<int> const &>, COMDAT
; _this$ = ecx

; 285  : 		: _Ty1(_STD forward<_Other1>(_Val1)),

	push	ebp
	mov	ebp, esp
	sub	esp, 204				; 000000ccH
	push	ebx
	push	esi
	push	edi
	push	ecx
	lea	edi, DWORD PTR [ebp-204]
	mov	ecx, 51					; 00000033H
	mov	eax, -858993460				; ccccccccH
	rep stosd
	pop	ecx
	mov	DWORD PTR _this$[ebp], ecx
	mov	ecx, OFFSET __DB64A6E0_xutility
	call	@__CheckForDebuggerJustMyCode@4
	mov	eax, DWORD PTR __Val1$[ebp]
	push	eax
	call	??$forward@ABV?$allocator@H@std@@@std@@YAABV?$allocator@H@0@ABV10@@Z ; std::forward<std::allocator<int> const &>
	add	esp, 4

; 286  : 			_Myval2(_STD forward<_Other2>(_Val2)...)

	mov	ecx, DWORD PTR _this$[ebp]
	call	??0?$_Vector_val@U?$_Simple_types@H@std@@@std@@QAE@XZ ; std::_Vector_val<std::_Simple_types<int> >::_Vector_val<std::_Simple_types<int> >

; 287  : 		{	// construct from forwarded values
; 288  : 		}

	mov	eax, DWORD PTR _this$[ebp]
	pop	edi
	pop	esi
	pop	ebx
	add	esp, 204				; 000000ccH
	cmp	ebp, esp
	call	__RTC_CheckEsp
	mov	esp, ebp
	pop	ebp
	ret	8
??$?0ABV?$allocator@H@std@@$$V@?$_Compressed_pair@V?$allocator@H@std@@V?$_Vector_val@U?$_Simple_types@H@std@@@2@$00@std@@QAE@U_One_then_variadic_args_t@1@ABV?$allocator@H@1@@Z ENDP ; std::_Compressed_pair<std::allocator<int>,std::_Vector_val<std::_Simple_types<int> >,1>::_Compressed_pair<std::allocator<int>,std::_Vector_val<std::_Simple_types<int> >,1><std::allocator<int> const &>
_TEXT	ENDS
; Function compile flags: /Odtp /RTCsu /ZI
; File c:\program files (x86)\microsoft visual studio\2017\professional\vc\tools\msvc\14.16.27023\include\type_traits
;	COMDAT ??$forward@ABV?$allocator@H@std@@@std@@YAABV?$allocator@H@0@ABV10@@Z
_TEXT	SEGMENT
__$EHRec$ = -12						; size = 12
__Arg$ = 8						; size = 4
??$forward@ABV?$allocator@H@std@@@std@@YAABV?$allocator@H@0@ABV10@@Z PROC ; std::forward<std::allocator<int> const &>, COMDAT

; 1573 : 	{	// forward an lvalue as either an lvalue or an rvalue

	push	ebp
	mov	ebp, esp
	push	-1
	push	__ehhandler$??$forward@ABV?$allocator@H@std@@@std@@YAABV?$allocator@H@0@ABV10@@Z
	mov	eax, DWORD PTR fs:0
	push	eax
	sub	esp, 192				; 000000c0H
	push	ebx
	push	esi
	push	edi
	lea	edi, DWORD PTR [ebp-204]
	mov	ecx, 48					; 00000030H
	mov	eax, -858993460				; ccccccccH
	rep stosd
	mov	eax, DWORD PTR ___security_cookie
	xor	eax, ebp
	push	eax
	lea	eax, DWORD PTR __$EHRec$[ebp]
	mov	DWORD PTR fs:0, eax
	mov	ecx, OFFSET __F87210DE_type_traits
	call	@__CheckForDebuggerJustMyCode@4

; 1574 : 	return (static_cast<_Ty&&>(_Arg));

	mov	eax, DWORD PTR __Arg$[ebp]

; 1575 : 	}

	mov	ecx, DWORD PTR __$EHRec$[ebp]
	mov	DWORD PTR fs:0, ecx
	pop	ecx
	pop	edi
	pop	esi
	pop	ebx
	add	esp, 204				; 000000ccH
	cmp	ebp, esp
	call	__RTC_CheckEsp
	mov	esp, ebp
	pop	ebp
	ret	0
_TEXT	ENDS
;	COMDAT text$x
text$x	SEGMENT
__ehhandler$??$forward@ABV?$allocator@H@std@@@std@@YAABV?$allocator@H@0@ABV10@@Z:
	mov	edx, DWORD PTR [esp+8]
	lea	eax, DWORD PTR [edx+12]
	mov	ecx, DWORD PTR [edx-208]
	xor	ecx, eax
	call	@__security_check_cookie@4
	mov	eax, OFFSET __ehfuncinfo$??$forward@ABV?$allocator@H@std@@@std@@YAABV?$allocator@H@0@ABV10@@Z
	jmp	___CxxFrameHandler3
text$x	ENDS
??$forward@ABV?$allocator@H@std@@@std@@YAABV?$allocator@H@0@ABV10@@Z ENDP ; std::forward<std::allocator<int> const &>
; Function compile flags: /Odtp /RTCsu /ZI
; File c:\program files (x86)\microsoft visual studio\2017\professional\vc\tools\msvc\14.16.27023\include\xmemory0
;	COMDAT ??$_Get_size_of_n@$03@std@@YAII@Z
_TEXT	SEGMENT
__Result$ = -20						; size = 4
__Max_possible$ = -8					; size = 4
__Count$ = 8						; size = 4
??$_Get_size_of_n@$03@std@@YAII@Z PROC			; std::_Get_size_of_n<4>, COMDAT

; 23   : 	{	// gets the size of _Count copies of a type sized _Ty_size

	push	ebp
	mov	ebp, esp
	sub	esp, 216				; 000000d8H
	push	ebx
	push	esi
	push	edi
	lea	edi, DWORD PTR [ebp-216]
	mov	ecx, 54					; 00000036H
	mov	eax, -858993460				; ccccccccH
	rep stosd
	mov	ecx, OFFSET __0A3767B1_xmemory0
	call	@__CheckForDebuggerJustMyCode@4

; 24   : 	constexpr size_t _Max_possible = static_cast<size_t>(-1) / _Ty_size;

	mov	DWORD PTR __Max_possible$[ebp], 1073741823 ; 3fffffffH

; 25   : 	size_t _Result = _Count * _Ty_size;

	mov	eax, DWORD PTR __Count$[ebp]
	shl	eax, 2
	mov	DWORD PTR __Result$[ebp], eax

; 26   : 	if (_Max_possible < _Count)

	cmp	DWORD PTR __Count$[ebp], 1073741823	; 3fffffffH
	jbe	SHORT $LN2@Get_size_o

; 27   : 		{	// multiply overflow, try allocating all of memory and assume the
; 28   : 			// allocation function will throw bad_alloc
; 29   : 		_Result = static_cast<size_t>(-1);

	mov	DWORD PTR __Result$[ebp], -1
$LN2@Get_size_o:

; 30   : 		}
; 31   : 
; 32   : 	return (_Result);

	mov	eax, DWORD PTR __Result$[ebp]

; 33   : 	}

	pop	edi
	pop	esi
	pop	ebx
	add	esp, 216				; 000000d8H
	cmp	ebp, esp
	call	__RTC_CheckEsp
	mov	esp, ebp
	pop	ebp
	ret	0
??$_Get_size_of_n@$03@std@@YAII@Z ENDP			; std::_Get_size_of_n<4>
_TEXT	ENDS
; Function compile flags: /Odtp /RTCsu /ZI
; File c:\program files (x86)\microsoft visual studio\2017\professional\vc\tools\msvc\14.16.27023\include\type_traits
;	COMDAT ??$forward@U_Container_proxy@std@@@std@@YA$$QAU_Container_proxy@0@AAU10@@Z
_TEXT	SEGMENT
__$EHRec$ = -12						; size = 12
__Arg$ = 8						; size = 4
??$forward@U_Container_proxy@std@@@std@@YA$$QAU_Container_proxy@0@AAU10@@Z PROC ; std::forward<std::_Container_proxy>, COMDAT

; 1573 : 	{	// forward an lvalue as either an lvalue or an rvalue

	push	ebp
	mov	ebp, esp
	push	-1
	push	__ehhandler$??$forward@U_Container_proxy@std@@@std@@YA$$QAU_Container_proxy@0@AAU10@@Z
	mov	eax, DWORD PTR fs:0
	push	eax
	sub	esp, 192				; 000000c0H
	push	ebx
	push	esi
	push	edi
	lea	edi, DWORD PTR [ebp-204]
	mov	ecx, 48					; 00000030H
	mov	eax, -858993460				; ccccccccH
	rep stosd
	mov	eax, DWORD PTR ___security_cookie
	xor	eax, ebp
	push	eax
	lea	eax, DWORD PTR __$EHRec$[ebp]
	mov	DWORD PTR fs:0, eax
	mov	ecx, OFFSET __F87210DE_type_traits
	call	@__CheckForDebuggerJustMyCode@4

; 1574 : 	return (static_cast<_Ty&&>(_Arg));

	mov	eax, DWORD PTR __Arg$[ebp]

; 1575 : 	}

	mov	ecx, DWORD PTR __$EHRec$[ebp]
	mov	DWORD PTR fs:0, ecx
	pop	ecx
	pop	edi
	pop	esi
	pop	ebx
	add	esp, 204				; 000000ccH
	cmp	ebp, esp
	call	__RTC_CheckEsp
	mov	esp, ebp
	pop	ebp
	ret	0
_TEXT	ENDS
;	COMDAT text$x
text$x	SEGMENT
__ehhandler$??$forward@U_Container_proxy@std@@@std@@YA$$QAU_Container_proxy@0@AAU10@@Z:
	mov	edx, DWORD PTR [esp+8]
	lea	eax, DWORD PTR [edx+12]
	mov	ecx, DWORD PTR [edx-208]
	xor	ecx, eax
	call	@__security_check_cookie@4
	mov	eax, OFFSET __ehfuncinfo$??$forward@U_Container_proxy@std@@@std@@YA$$QAU_Container_proxy@0@AAU10@@Z
	jmp	___CxxFrameHandler3
text$x	ENDS
??$forward@U_Container_proxy@std@@@std@@YA$$QAU_Container_proxy@0@AAU10@@Z ENDP ; std::forward<std::_Container_proxy>
; Function compile flags: /Odtp /RTCsu /ZI
; File c:\program files (x86)\microsoft visual studio\2017\professional\vc\tools\msvc\14.16.27023\include\xmemory0
;	COMDAT ??$_Destroy_range1@V?$allocator@H@std@@@std@@YAXPAH0AAV?$allocator@H@0@U?$integral_constant@_N$00@0@@Z
_TEXT	SEGMENT
___formal$ = 8						; size = 4
___formal$ = 12						; size = 4
___formal$ = 16						; size = 4
___formal$ = 20						; size = 1
??$_Destroy_range1@V?$allocator@H@std@@@std@@YAXPAH0AAV?$allocator@H@0@U?$integral_constant@_N$00@0@@Z PROC ; std::_Destroy_range1<std::allocator<int> >, COMDAT

; 1145 : 	{	// destroy [_First, _Last), trivially destructible and default destroy

	push	ebp
	mov	ebp, esp
	sub	esp, 192				; 000000c0H
	push	ebx
	push	esi
	push	edi
	lea	edi, DWORD PTR [ebp-192]
	mov	ecx, 48					; 00000030H
	mov	eax, -858993460				; ccccccccH
	rep stosd
	mov	ecx, OFFSET __0A3767B1_xmemory0
	call	@__CheckForDebuggerJustMyCode@4

; 1146 : 		// nothing to do
; 1147 : 	}

	pop	edi
	pop	esi
	pop	ebx
	add	esp, 192				; 000000c0H
	cmp	ebp, esp
	call	__RTC_CheckEsp
	mov	esp, ebp
	pop	ebp
	ret	0
??$_Destroy_range1@V?$allocator@H@std@@@std@@YAXPAH0AAV?$allocator@H@0@U?$integral_constant@_N$00@0@@Z ENDP ; std::_Destroy_range1<std::allocator<int> >
_TEXT	ENDS
; Function compile flags: /Odtp /RTCsu /ZI
; File c:\program files (x86)\microsoft visual studio\2017\professional\vc\tools\msvc\14.16.27023\include\xmemory0
;	COMDAT ??$_Destroy_range1@V?$allocator@V?$vector@HV?$allocator@H@std@@@std@@@std@@@std@@YAXPAV?$vector@HV?$allocator@H@std@@@0@0AAV?$allocator@V?$vector@HV?$allocator@H@std@@@std@@@0@U?$integral_constant@_N$0A@@0@@Z
_TEXT	SEGMENT
__First$ = 8						; size = 4
__Last$ = 12						; size = 4
__Al$ = 16						; size = 4
___formal$ = 20						; size = 1
??$_Destroy_range1@V?$allocator@V?$vector@HV?$allocator@H@std@@@std@@@std@@@std@@YAXPAV?$vector@HV?$allocator@H@std@@@0@0AAV?$allocator@V?$vector@HV?$allocator@H@std@@@std@@@0@U?$integral_constant@_N$0A@@0@@Z PROC ; std::_Destroy_range1<std::allocator<std::vector<int,std::allocator<int> > > >, COMDAT

; 1133 : 	{	// destroy [_First, _Last), no special optimization

	push	ebp
	mov	ebp, esp
	sub	esp, 192				; 000000c0H
	push	ebx
	push	esi
	push	edi
	lea	edi, DWORD PTR [ebp-192]
	mov	ecx, 48					; 00000030H
	mov	eax, -858993460				; ccccccccH
	rep stosd
	mov	ecx, OFFSET __0A3767B1_xmemory0
	call	@__CheckForDebuggerJustMyCode@4

; 1134 : 	for (; _First != _Last; ++_First)

	jmp	SHORT $LN4@Destroy_ra
$LN2@Destroy_ra:
	mov	eax, DWORD PTR __First$[ebp]
	add	eax, 16					; 00000010H
	mov	DWORD PTR __First$[ebp], eax
$LN4@Destroy_ra:
	mov	eax, DWORD PTR __First$[ebp]
	cmp	eax, DWORD PTR __Last$[ebp]
	je	SHORT $LN1@Destroy_ra

; 1135 : 		{
; 1136 : 		allocator_traits<_Alloc>::destroy(_Al, _Unfancy(_First));

	mov	eax, DWORD PTR __First$[ebp]
	push	eax
	call	??$_Unfancy@V?$vector@HV?$allocator@H@std@@@std@@@std@@YAPAV?$vector@HV?$allocator@H@std@@@0@PAV10@@Z ; std::_Unfancy<std::vector<int,std::allocator<int> > >
	add	esp, 4
	push	eax
	mov	ecx, DWORD PTR __Al$[ebp]
	push	ecx
	call	??$destroy@V?$vector@HV?$allocator@H@std@@@std@@@?$_Default_allocator_traits@V?$allocator@V?$vector@HV?$allocator@H@std@@@std@@@std@@@std@@SAXAAV?$allocator@V?$vector@HV?$allocator@H@std@@@std@@@1@QAV?$vector@HV?$allocator@H@std@@@1@@Z ; std::_Default_allocator_traits<std::allocator<std::vector<int,std::allocator<int> > > >::destroy<std::vector<int,std::allocator<int> > >
	add	esp, 8

; 1137 : 		}

	jmp	SHORT $LN2@Destroy_ra
$LN1@Destroy_ra:

; 1138 : 	}

	pop	edi
	pop	esi
	pop	ebx
	add	esp, 192				; 000000c0H
	cmp	ebp, esp
	call	__RTC_CheckEsp
	mov	esp, ebp
	pop	ebp
	ret	0
??$_Destroy_range1@V?$allocator@V?$vector@HV?$allocator@H@std@@@std@@@std@@@std@@YAXPAV?$vector@HV?$allocator@H@std@@@0@0AAV?$allocator@V?$vector@HV?$allocator@H@std@@@std@@@0@U?$integral_constant@_N$0A@@0@@Z ENDP ; std::_Destroy_range1<std::allocator<std::vector<int,std::allocator<int> > > >
_TEXT	ENDS
; Function compile flags: /Odtp /RTCsu /ZI
; File c:\program files (x86)\microsoft visual studio\2017\professional\vc\tools\msvc\14.16.27023\include\xmemory0
;	COMDAT ??$_Allocate_manually_vector_aligned@U_Default_allocate_traits@std@@@std@@YAPAXI@Z
_TEXT	SEGMENT
__Ptr$ = -32						; size = 4
__Ptr_container$ = -20					; size = 4
__Block_size$ = -8					; size = 4
__Bytes$ = 8						; size = 4
??$_Allocate_manually_vector_aligned@U_Default_allocate_traits@std@@@std@@YAPAXI@Z PROC ; std::_Allocate_manually_vector_aligned<std::_Default_allocate_traits>, COMDAT

; 92   : 	{	// allocate _Bytes manually aligned to at least _Big_allocation_alignment

	push	ebp
	mov	ebp, esp
	sub	esp, 228				; 000000e4H
	push	ebx
	push	esi
	push	edi
	lea	edi, DWORD PTR [ebp-228]
	mov	ecx, 57					; 00000039H
	mov	eax, -858993460				; ccccccccH
	rep stosd
	mov	ecx, OFFSET __0A3767B1_xmemory0
	call	@__CheckForDebuggerJustMyCode@4

; 93   : 	size_t _Block_size = _Non_user_size + _Bytes;

	mov	eax, DWORD PTR __Bytes$[ebp]
	add	eax, 39					; 00000027H
	mov	DWORD PTR __Block_size$[ebp], eax

; 94   : 	if (_Block_size <= _Bytes)

	mov	eax, DWORD PTR __Block_size$[ebp]
	cmp	eax, DWORD PTR __Bytes$[ebp]
	ja	SHORT $LN8@Allocate_m

; 95   : 		{	// add overflow, try allocating all of memory and assume the
; 96   : 			// allocation function will throw bad_alloc
; 97   : 		_Block_size = static_cast<size_t>(-1);

	mov	DWORD PTR __Block_size$[ebp], -1
$LN8@Allocate_m:

; 98   : 		}
; 99   : 
; 100  : 	const uintptr_t _Ptr_container = reinterpret_cast<uintptr_t>(_Traits::_Allocate(_Block_size));

	mov	eax, DWORD PTR __Block_size$[ebp]
	push	eax
	call	?_Allocate@_Default_allocate_traits@std@@SAPAXI@Z ; std::_Default_allocate_traits::_Allocate
	add	esp, 4
	mov	DWORD PTR __Ptr_container$[ebp], eax
$LN4@Allocate_m:

; 101  : 	_STL_VERIFY(_Ptr_container != 0, "invalid argument");	// validate even in release since we're doing p[-1]

	cmp	DWORD PTR __Ptr_container$[ebp], 0
	je	SHORT $LN7@Allocate_m
	jmp	SHORT $LN2@Allocate_m
$LN7@Allocate_m:
	mov	esi, esp
	push	OFFSET ??_C@_0BB@FCMFBGOM@invalid?5argument@
	push	OFFSET ??_C@_02DKCKIIND@?$CFs@
	push	0
	push	101					; 00000065H
	push	OFFSET ??_C@_0GM@EMOPLGHB@c?3?2program?5files?5?$CIx86?$CJ?2microsof@
	push	2
	call	DWORD PTR __imp___CrtDbgReport
	add	esp, 24					; 00000018H
	cmp	esi, esp
	call	__RTC_CheckEsp
	cmp	eax, 1
	jne	SHORT $LN12@Allocate_m
	int	3
$LN12@Allocate_m:
	mov	esi, esp
	push	0
	push	101					; 00000065H
	push	OFFSET ??_C@_1NI@NGGEPBDP@?$AAc?$AA?3?$AA?2?$AAp?$AAr?$AAo?$AAg?$AAr?$AAa?$AAm?$AA?5?$AAf?$AAi?$AAl?$AAe@
	push	OFFSET ??_C@_1EO@GFNCMDLA@?$AAs?$AAt?$AAd?$AA?3?$AA?3?$AA_?$AAA?$AAl?$AAl?$AAo?$AAc?$AAa?$AAt?$AAe?$AA_@
	push	OFFSET ??_C@_1CG@JNLFBNGN@?$AA?$CC?$AAi?$AAn?$AAv?$AAa?$AAl?$AAi?$AAd?$AA?5?$AAa?$AAr?$AAg?$AAu?$AAm?$AAe@
	call	DWORD PTR __imp___invalid_parameter
	add	esp, 20					; 00000014H
	cmp	esi, esp
	call	__RTC_CheckEsp
	xor	eax, eax
	jne	SHORT $LN7@Allocate_m
$LN2@Allocate_m:
	xor	eax, eax
	jne	SHORT $LN4@Allocate_m

; 102  : 	void * const _Ptr = reinterpret_cast<void *>((_Ptr_container + _Non_user_size)
; 103  : 		& ~(_Big_allocation_alignment - 1));

	mov	eax, DWORD PTR __Ptr_container$[ebp]
	add	eax, 39					; 00000027H
	and	eax, -32				; ffffffe0H
	mov	DWORD PTR __Ptr$[ebp], eax

; 104  : 	static_cast<uintptr_t *>(_Ptr)[-1] = _Ptr_container;

	mov	eax, 4
	imul	ecx, eax, -1
	mov	edx, DWORD PTR __Ptr$[ebp]
	mov	eax, DWORD PTR __Ptr_container$[ebp]
	mov	DWORD PTR [edx+ecx], eax

; 105  : 
; 106  :   #ifdef _DEBUG
; 107  : 	static_cast<uintptr_t *>(_Ptr)[-2] = _Big_allocation_sentinel;

	mov	eax, 4
	imul	ecx, eax, -2
	mov	edx, DWORD PTR __Ptr$[ebp]
	mov	DWORD PTR [edx+ecx], -84215046		; fafafafaH

; 108  :   #endif /* _DEBUG */
; 109  : 	return (_Ptr);

	mov	eax, DWORD PTR __Ptr$[ebp]

; 110  : 	}

	pop	edi
	pop	esi
	pop	ebx
	add	esp, 228				; 000000e4H
	cmp	ebp, esp
	call	__RTC_CheckEsp
	mov	esp, ebp
	pop	ebp
	ret	0
??$_Allocate_manually_vector_aligned@U_Default_allocate_traits@std@@@std@@YAPAXI@Z ENDP ; std::_Allocate_manually_vector_aligned<std::_Default_allocate_traits>
_TEXT	ENDS
; Function compile flags: /Odtp /RTCsu /ZI
; File c:\program files (x86)\microsoft visual studio\2017\professional\vc\tools\msvc\14.16.27023\include\xutility
;	COMDAT ??$_Move_unchecked1@PAHPAH@std@@YAPAHPAH00U_Trivially_copyable_ptr_iterator_tag@0@@Z
_TEXT	SEGMENT
__First$ = 8						; size = 4
__Last$ = 12						; size = 4
__Dest$ = 16						; size = 4
___formal$ = 20						; size = 1
??$_Move_unchecked1@PAHPAH@std@@YAPAHPAH00U_Trivially_copyable_ptr_iterator_tag@0@@Z PROC ; std::_Move_unchecked1<int *,int *>, COMDAT

; 2726 : 	{	// move [_First, _Last) to [_Dest, ...), memmove optimization

	push	ebp
	mov	ebp, esp
	sub	esp, 192				; 000000c0H
	push	ebx
	push	esi
	push	edi
	lea	edi, DWORD PTR [ebp-192]
	mov	ecx, 48					; 00000030H
	mov	eax, -858993460				; ccccccccH
	rep stosd
	mov	ecx, OFFSET __DB64A6E0_xutility
	call	@__CheckForDebuggerJustMyCode@4

; 2727 : 	return (_Copy_memmove(_First, _Last, _Dest));

	mov	eax, DWORD PTR __Dest$[ebp]
	push	eax
	mov	ecx, DWORD PTR __Last$[ebp]
	push	ecx
	mov	edx, DWORD PTR __First$[ebp]
	push	edx
	call	??$_Copy_memmove@PAHPAH@std@@YAPAHPAH00@Z ; std::_Copy_memmove<int *,int *>
	add	esp, 12					; 0000000cH

; 2728 : 	}

	pop	edi
	pop	esi
	pop	ebx
	add	esp, 192				; 000000c0H
	cmp	ebp, esp
	call	__RTC_CheckEsp
	mov	esp, ebp
	pop	ebp
	ret	0
??$_Move_unchecked1@PAHPAH@std@@YAPAHPAH00U_Trivially_copyable_ptr_iterator_tag@0@@Z ENDP ; std::_Move_unchecked1<int *,int *>
_TEXT	ENDS
; Function compile flags: /Odtp /RTCsu /ZI
; File c:\program files (x86)\microsoft visual studio\2017\professional\vc\tools\msvc\14.16.27023\include\xutility
;	COMDAT ??$_Ptr_move_cat@HH@std@@YA?AU_Really_trivial_ptr_iterator_tag@0@ABQAH0@Z
_TEXT	SEGMENT
___$ReturnUdt$ = 8					; size = 4
___formal$ = 12						; size = 4
___formal$ = 16						; size = 4
??$_Ptr_move_cat@HH@std@@YA?AU_Really_trivial_ptr_iterator_tag@0@ABQAH0@Z PROC ; std::_Ptr_move_cat<int,int>, COMDAT

; 1086 : 	{	// return pointer move optimization category for pointers

	push	ebp
	mov	ebp, esp
	sub	esp, 192				; 000000c0H
	push	ebx
	push	esi
	push	edi
	lea	edi, DWORD PTR [ebp-192]
	mov	ecx, 48					; 00000030H
	mov	eax, -858993460				; ccccccccH
	rep stosd
	mov	ecx, OFFSET __DB64A6E0_xutility
	call	@__CheckForDebuggerJustMyCode@4

; 1087 : 	return {};

	mov	eax, DWORD PTR ___$ReturnUdt$[ebp]

; 1088 : 	}

	pop	edi
	pop	esi
	pop	ebx
	add	esp, 192				; 000000c0H
	cmp	ebp, esp
	call	__RTC_CheckEsp
	mov	esp, ebp
	pop	ebp
	ret	0
??$_Ptr_move_cat@HH@std@@YA?AU_Really_trivial_ptr_iterator_tag@0@ABQAH0@Z ENDP ; std::_Ptr_move_cat<int,int>
_TEXT	ENDS
; Function compile flags: /Odtp /RTCsu /ZI
; File c:\program files (x86)\microsoft visual studio\2017\professional\vc\tools\msvc\14.16.27023\include\numeric
;	COMDAT ??$accumulate@V?$_Vector_iterator@V?$_Vector_val@U?$_Simple_types@H@std@@@std@@@std@@_KU?$plus@X@2@@std@@YA_KV?$_Vector_iterator@V?$_Vector_val@U?$_Simple_types@H@std@@@std@@@0@0_KU?$plus@X@0@@Z
_TEXT	SEGMENT
$T2 = -240						; size = 8
__ULast$ = -32						; size = 4
__UFirst$ = -20						; size = 4
__$EHRec$ = -12						; size = 12
__First$ = 8						; size = 12
__Last$ = 20						; size = 12
__Val$ = 32						; size = 8
__Reduce_op$ = 40					; size = 1
??$accumulate@V?$_Vector_iterator@V?$_Vector_val@U?$_Simple_types@H@std@@@std@@@std@@_KU?$plus@X@2@@std@@YA_KV?$_Vector_iterator@V?$_Vector_val@U?$_Simple_types@H@std@@@std@@@0@0_KU?$plus@X@0@@Z PROC ; std::accumulate<std::_Vector_iterator<std::_Vector_val<std::_Simple_types<int> > >,unsigned __int64,std::plus<void> >, COMDAT

; 20   : 	{	// return noncommutative and nonassociative reduction of _Val and all in [_First, _Last), using _Reduce_op

	push	ebp
	mov	ebp, esp
	push	-1
	push	__ehhandler$??$accumulate@V?$_Vector_iterator@V?$_Vector_val@U?$_Simple_types@H@std@@@std@@@std@@_KU?$plus@X@2@@std@@YA_KV?$_Vector_iterator@V?$_Vector_val@U?$_Simple_types@H@std@@@std@@@0@0_KU?$plus@X@0@@Z
	mov	eax, DWORD PTR fs:0
	push	eax
	sub	esp, 232				; 000000e8H
	push	ebx
	push	esi
	push	edi
	lea	edi, DWORD PTR [ebp-244]
	mov	ecx, 58					; 0000003aH
	mov	eax, -858993460				; ccccccccH
	rep stosd
	mov	eax, DWORD PTR ___security_cookie
	xor	eax, ebp
	push	eax
	lea	eax, DWORD PTR __$EHRec$[ebp]
	mov	DWORD PTR fs:0, eax
	mov	DWORD PTR __$EHRec$[ebp+8], 1
	mov	ecx, OFFSET __692CDE51_numeric
	call	@__CheckForDebuggerJustMyCode@4

; 21   : 	_Adl_verify_range(_First, _Last);

	lea	eax, DWORD PTR __Last$[ebp]
	push	eax
	lea	ecx, DWORD PTR __First$[ebp]
	push	ecx
	call	??$_Adl_verify_range@V?$_Vector_iterator@V?$_Vector_val@U?$_Simple_types@H@std@@@std@@@std@@V12@@std@@YAXABV?$_Vector_iterator@V?$_Vector_val@U?$_Simple_types@H@std@@@std@@@0@0@Z ; std::_Adl_verify_range<std::_Vector_iterator<std::_Vector_val<std::_Simple_types<int> > >,std::_Vector_iterator<std::_Vector_val<std::_Simple_types<int> > > >
	add	esp, 8

; 22   : 	auto _UFirst = _Get_unwrapped(_First);

	lea	eax, DWORD PTR __First$[ebp]
	push	eax
	call	??$_Get_unwrapped@V?$_Vector_iterator@V?$_Vector_val@U?$_Simple_types@H@std@@@std@@@std@@$0A@@std@@YA@ABV?$_Vector_iterator@V?$_Vector_val@U?$_Simple_types@H@std@@@std@@@0@@Z ; std::_Get_unwrapped<std::_Vector_iterator<std::_Vector_val<std::_Simple_types<int> > >,0>
	add	esp, 4
	mov	DWORD PTR __UFirst$[ebp], eax

; 23   : 	const auto _ULast = _Get_unwrapped(_Last);

	lea	eax, DWORD PTR __Last$[ebp]
	push	eax
	call	??$_Get_unwrapped@V?$_Vector_iterator@V?$_Vector_val@U?$_Simple_types@H@std@@@std@@@std@@$0A@@std@@YA@ABV?$_Vector_iterator@V?$_Vector_val@U?$_Simple_types@H@std@@@std@@@0@@Z ; std::_Get_unwrapped<std::_Vector_iterator<std::_Vector_val<std::_Simple_types<int> > >,0>
	add	esp, 4
	mov	DWORD PTR __ULast$[ebp], eax

; 24   : 	for (; _UFirst != _ULast; ++_UFirst)

	jmp	SHORT $LN4@accumulate
$LN2@accumulate:
	mov	eax, DWORD PTR __UFirst$[ebp]
	add	eax, 4
	mov	DWORD PTR __UFirst$[ebp], eax
$LN4@accumulate:
	mov	eax, DWORD PTR __UFirst$[ebp]
	cmp	eax, DWORD PTR __ULast$[ebp]
	je	SHORT $LN3@accumulate

; 25   : 		{
; 26   : 		_Val = _Reduce_op(_Val, *_UFirst);

	mov	eax, DWORD PTR __UFirst$[ebp]
	push	eax
	lea	ecx, DWORD PTR __Val$[ebp]
	push	ecx
	lea	ecx, DWORD PTR __Reduce_op$[ebp]
	call	??$?RAA_KAAH@?$plus@X@std@@QBE_KAA_KAAH@Z ; std::plus<void>::operator()<unsigned __int64 &,int &>
	mov	DWORD PTR __Val$[ebp], eax
	mov	DWORD PTR __Val$[ebp+4], edx

; 27   : 		}

	jmp	SHORT $LN2@accumulate
$LN3@accumulate:

; 28   : 
; 29   : 	return (_Val);

	mov	eax, DWORD PTR __Val$[ebp]
	mov	DWORD PTR $T2[ebp], eax
	mov	ecx, DWORD PTR __Val$[ebp+4]
	mov	DWORD PTR $T2[ebp+4], ecx
	mov	BYTE PTR __$EHRec$[ebp+8], 0
	lea	ecx, DWORD PTR __First$[ebp]
	call	??1?$_Vector_iterator@V?$_Vector_val@U?$_Simple_types@H@std@@@std@@@std@@QAE@XZ
	mov	DWORD PTR __$EHRec$[ebp+8], -1
	lea	ecx, DWORD PTR __Last$[ebp]
	call	??1?$_Vector_iterator@V?$_Vector_val@U?$_Simple_types@H@std@@@std@@@std@@QAE@XZ
	mov	eax, DWORD PTR $T2[ebp]
	mov	edx, DWORD PTR $T2[ebp+4]

; 30   : 	}

	mov	ecx, DWORD PTR __$EHRec$[ebp]
	mov	DWORD PTR fs:0, ecx
	pop	ecx
	pop	edi
	pop	esi
	pop	ebx
	add	esp, 244				; 000000f4H
	cmp	ebp, esp
	call	__RTC_CheckEsp
	mov	esp, ebp
	pop	ebp
	ret	0
_TEXT	ENDS
;	COMDAT text$x
text$x	SEGMENT
__unwindfunclet$??$accumulate@V?$_Vector_iterator@V?$_Vector_val@U?$_Simple_types@H@std@@@std@@@std@@_KU?$plus@X@2@@std@@YA_KV?$_Vector_iterator@V?$_Vector_val@U?$_Simple_types@H@std@@@std@@@0@0_KU?$plus@X@0@@Z$0:
	lea	ecx, DWORD PTR __Last$[ebp]
	jmp	??1?$_Vector_iterator@V?$_Vector_val@U?$_Simple_types@H@std@@@std@@@std@@QAE@XZ
__unwindfunclet$??$accumulate@V?$_Vector_iterator@V?$_Vector_val@U?$_Simple_types@H@std@@@std@@@std@@_KU?$plus@X@2@@std@@YA_KV?$_Vector_iterator@V?$_Vector_val@U?$_Simple_types@H@std@@@std@@@0@0_KU?$plus@X@0@@Z$1:
	lea	ecx, DWORD PTR __First$[ebp]
	jmp	??1?$_Vector_iterator@V?$_Vector_val@U?$_Simple_types@H@std@@@std@@@std@@QAE@XZ
__ehhandler$??$accumulate@V?$_Vector_iterator@V?$_Vector_val@U?$_Simple_types@H@std@@@std@@@std@@_KU?$plus@X@2@@std@@YA_KV?$_Vector_iterator@V?$_Vector_val@U?$_Simple_types@H@std@@@std@@@0@0_KU?$plus@X@0@@Z:
	mov	edx, DWORD PTR [esp+8]
	lea	eax, DWORD PTR [edx+12]
	mov	ecx, DWORD PTR [edx-248]
	xor	ecx, eax
	call	@__security_check_cookie@4
	mov	eax, OFFSET __ehfuncinfo$??$accumulate@V?$_Vector_iterator@V?$_Vector_val@U?$_Simple_types@H@std@@@std@@@std@@_KU?$plus@X@2@@std@@YA_KV?$_Vector_iterator@V?$_Vector_val@U?$_Simple_types@H@std@@@std@@@0@0_KU?$plus@X@0@@Z
	jmp	___CxxFrameHandler3
text$x	ENDS
??$accumulate@V?$_Vector_iterator@V?$_Vector_val@U?$_Simple_types@H@std@@@std@@@std@@_KU?$plus@X@2@@std@@YA_KV?$_Vector_iterator@V?$_Vector_val@U?$_Simple_types@H@std@@@std@@@0@0_KU?$plus@X@0@@Z ENDP ; std::accumulate<std::_Vector_iterator<std::_Vector_val<std::_Simple_types<int> > >,unsigned __int64,std::plus<void> >
; Function compile flags: /Odtp /RTCsu /ZI
; File c:\program files (x86)\microsoft visual studio\2017\professional\vc\tools\msvc\14.16.27023\include\xutility
;	COMDAT ??$_Seek_wrapped@V?$_Vector_iterator@V?$_Vector_val@U?$_Simple_types@H@std@@@std@@@std@@PAH$0A@@std@@YAXAAV?$_Vector_iterator@V?$_Vector_val@U?$_Simple_types@H@std@@@std@@@0@ABQAH@Z
_TEXT	SEGMENT
__It$ = 8						; size = 4
__UIt$ = 12						; size = 4
??$_Seek_wrapped@V?$_Vector_iterator@V?$_Vector_val@U?$_Simple_types@H@std@@@std@@@std@@PAH$0A@@std@@YAXAAV?$_Vector_iterator@V?$_Vector_val@U?$_Simple_types@H@std@@@std@@@0@ABQAH@Z PROC ; std::_Seek_wrapped<std::_Vector_iterator<std::_Vector_val<std::_Simple_types<int> > >,int *,0>, COMDAT

; 856  : 	{

	push	ebp
	mov	ebp, esp
	sub	esp, 192				; 000000c0H
	push	ebx
	push	esi
	push	edi
	lea	edi, DWORD PTR [ebp-192]
	mov	ecx, 48					; 00000030H
	mov	eax, -858993460				; ccccccccH
	rep stosd
	mov	ecx, OFFSET __DB64A6E0_xutility
	call	@__CheckForDebuggerJustMyCode@4

; 857  : 	_It._Seek_to(_UIt);

	mov	eax, DWORD PTR __UIt$[ebp]
	mov	ecx, DWORD PTR [eax]
	push	ecx
	mov	ecx, DWORD PTR __It$[ebp]
	call	?_Seek_to@?$_Vector_const_iterator@V?$_Vector_val@U?$_Simple_types@H@std@@@std@@@std@@QAEXPBH@Z ; std::_Vector_const_iterator<std::_Vector_val<std::_Simple_types<int> > >::_Seek_to

; 858  : 	}

	pop	edi
	pop	esi
	pop	ebx
	add	esp, 192				; 000000c0H
	cmp	ebp, esp
	call	__RTC_CheckEsp
	mov	esp, ebp
	pop	ebp
	ret	0
??$_Seek_wrapped@V?$_Vector_iterator@V?$_Vector_val@U?$_Simple_types@H@std@@@std@@@std@@PAH$0A@@std@@YAXAAV?$_Vector_iterator@V?$_Vector_val@U?$_Simple_types@H@std@@@std@@@0@ABQAH@Z ENDP ; std::_Seek_wrapped<std::_Vector_iterator<std::_Vector_val<std::_Simple_types<int> > >,int *,0>
_TEXT	ENDS
; Function compile flags: /Odtp /RTCsu /ZI
; File c:\program files (x86)\microsoft visual studio\2017\professional\vc\tools\msvc\14.16.27023\include\xutility
;	COMDAT ??$_Find_unchecked@PAHH@std@@YAPAHQAH0ABH@Z
_TEXT	SEGMENT
$T1 = -197						; size = 1
__First$ = 8						; size = 4
__Last$ = 12						; size = 4
__Val$ = 16						; size = 4
??$_Find_unchecked@PAHH@std@@YAPAHQAH0ABH@Z PROC	; std::_Find_unchecked<int *,int>, COMDAT

; 3528 : 	{	// find first matching _Val; choose optimization

	push	ebp
	mov	ebp, esp
	sub	esp, 204				; 000000ccH
	push	ebx
	push	esi
	push	edi
	lea	edi, DWORD PTR [ebp-204]
	mov	ecx, 51					; 00000033H
	mov	eax, -858993460				; ccccccccH
	rep stosd
	mov	ecx, OFFSET __DB64A6E0_xutility
	call	@__CheckForDebuggerJustMyCode@4

; 3529 : 	// activate optimization for pointers to (const) bytes and integral values
; 3530 : 	using _Memchr_opt = bool_constant<is_integral_v<_Ty> && _Is_any_of_v<_InIt,
; 3531 : 		char *, signed char *, unsigned char *, const char *, const signed char *, const unsigned char *>>;
; 3532 : 
; 3533 : 	return (_Find_unchecked1(_First, _Last, _Val, _Memchr_opt{}));

	xor	eax, eax
	mov	BYTE PTR $T1[ebp], al
	movzx	ecx, BYTE PTR $T1[ebp]
	push	ecx
	mov	edx, DWORD PTR __Val$[ebp]
	push	edx
	mov	eax, DWORD PTR __Last$[ebp]
	push	eax
	mov	ecx, DWORD PTR __First$[ebp]
	push	ecx
	call	??$_Find_unchecked1@PAHH@std@@YAPAHPAHQAHABHU?$integral_constant@_N$0A@@0@@Z ; std::_Find_unchecked1<int *,int>
	add	esp, 16					; 00000010H

; 3534 : 	}

	pop	edi
	pop	esi
	pop	ebx
	add	esp, 204				; 000000ccH
	cmp	ebp, esp
	call	__RTC_CheckEsp
	mov	esp, ebp
	pop	ebp
	ret	0
??$_Find_unchecked@PAHH@std@@YAPAHQAH0ABH@Z ENDP	; std::_Find_unchecked<int *,int>
_TEXT	ENDS
; Function compile flags: /Odtp /RTCsu /ZI
; File c:\program files (x86)\microsoft visual studio\2017\professional\vc\tools\msvc\14.16.27023\include\algorithm
;	COMDAT ??$max_element@V?$_Vector_iterator@V?$_Vector_val@U?$_Simple_types@H@std@@@std@@@std@@U?$less@X@2@@std@@YA?AV?$_Vector_iterator@V?$_Vector_val@U?$_Simple_types@H@std@@@std@@@0@V10@0U?$less@X@0@@Z
_TEXT	SEGMENT
$T2 = -236						; size = 4
$T3 = -221						; size = 1
$T4 = -212						; size = 4
__$EHRec$ = -12						; size = 12
___$ReturnUdt$ = 8					; size = 4
__First$ = 12						; size = 12
__Last$ = 24						; size = 12
__Pred$ = 36						; size = 1
??$max_element@V?$_Vector_iterator@V?$_Vector_val@U?$_Simple_types@H@std@@@std@@@std@@U?$less@X@2@@std@@YA?AV?$_Vector_iterator@V?$_Vector_val@U?$_Simple_types@H@std@@@std@@@0@V10@0U?$less@X@0@@Z PROC ; std::max_element<std::_Vector_iterator<std::_Vector_val<std::_Simple_types<int> > >,std::less<void> >, COMDAT

; 5179 : 	{	// find largest element, using _Pred

	push	ebp
	mov	ebp, esp
	push	-1
	push	__ehhandler$??$max_element@V?$_Vector_iterator@V?$_Vector_val@U?$_Simple_types@H@std@@@std@@@std@@U?$less@X@2@@std@@YA?AV?$_Vector_iterator@V?$_Vector_val@U?$_Simple_types@H@std@@@std@@@0@V10@0U?$less@X@0@@Z
	mov	eax, DWORD PTR fs:0
	push	eax
	sub	esp, 228				; 000000e4H
	push	ebx
	push	esi
	push	edi
	lea	edi, DWORD PTR [ebp-240]
	mov	ecx, 57					; 00000039H
	mov	eax, -858993460				; ccccccccH
	rep stosd
	mov	eax, DWORD PTR ___security_cookie
	xor	eax, ebp
	push	eax
	lea	eax, DWORD PTR __$EHRec$[ebp]
	mov	DWORD PTR fs:0, eax
	mov	DWORD PTR $T2[ebp], 0
	mov	DWORD PTR __$EHRec$[ebp+8], 1
	mov	ecx, OFFSET __FC232AAC_algorithm
	call	@__CheckForDebuggerJustMyCode@4

; 5180 : 	_Adl_verify_range(_First, _Last);

	lea	eax, DWORD PTR __Last$[ebp]
	push	eax
	lea	ecx, DWORD PTR __First$[ebp]
	push	ecx
	call	??$_Adl_verify_range@V?$_Vector_iterator@V?$_Vector_val@U?$_Simple_types@H@std@@@std@@@std@@V12@@std@@YAXABV?$_Vector_iterator@V?$_Vector_val@U?$_Simple_types@H@std@@@std@@@0@0@Z ; std::_Adl_verify_range<std::_Vector_iterator<std::_Vector_val<std::_Simple_types<int> > >,std::_Vector_iterator<std::_Vector_val<std::_Simple_types<int> > > >
	add	esp, 8

; 5181 : 	_Seek_wrapped(_First,

	movzx	eax, BYTE PTR __Pred$[ebp]
	push	eax
	call	??$_Pass_fn@U?$less@X@std@@$0A@@std@@YA?AU?$less@X@0@U10@@Z ; std::_Pass_fn<std::less<void>,0>
	add	esp, 4
	mov	BYTE PTR $T3[ebp], al
	movzx	ecx, BYTE PTR $T3[ebp]
	push	ecx
	lea	edx, DWORD PTR __Last$[ebp]
	push	edx
	call	??$_Get_unwrapped@V?$_Vector_iterator@V?$_Vector_val@U?$_Simple_types@H@std@@@std@@@std@@$0A@@std@@YA@ABV?$_Vector_iterator@V?$_Vector_val@U?$_Simple_types@H@std@@@std@@@0@@Z ; std::_Get_unwrapped<std::_Vector_iterator<std::_Vector_val<std::_Simple_types<int> > >,0>
	add	esp, 4
	push	eax
	lea	eax, DWORD PTR __First$[ebp]
	push	eax
	call	??$_Get_unwrapped@V?$_Vector_iterator@V?$_Vector_val@U?$_Simple_types@H@std@@@std@@@std@@$0A@@std@@YA@ABV?$_Vector_iterator@V?$_Vector_val@U?$_Simple_types@H@std@@@std@@@0@@Z ; std::_Get_unwrapped<std::_Vector_iterator<std::_Vector_val<std::_Simple_types<int> > >,0>
	add	esp, 4
	push	eax
	call	??$_Max_element_unchecked@PAHU?$less@X@std@@@std@@YAPAHPAH0U?$less@X@0@@Z ; std::_Max_element_unchecked<int *,std::less<void> >
	add	esp, 12					; 0000000cH
	mov	DWORD PTR $T4[ebp], eax
	lea	ecx, DWORD PTR $T4[ebp]
	push	ecx
	lea	edx, DWORD PTR __First$[ebp]
	push	edx
	call	??$_Seek_wrapped@V?$_Vector_iterator@V?$_Vector_val@U?$_Simple_types@H@std@@@std@@@std@@PAH$0A@@std@@YAXAAV?$_Vector_iterator@V?$_Vector_val@U?$_Simple_types@H@std@@@std@@@0@ABQAH@Z ; std::_Seek_wrapped<std::_Vector_iterator<std::_Vector_val<std::_Simple_types<int> > >,int *,0>
	add	esp, 8

; 5182 : 		_Max_element_unchecked(_Get_unwrapped(_First), _Get_unwrapped(_Last), _Pass_fn(_Pred)));
; 5183 : 	return (_First);

	lea	eax, DWORD PTR __First$[ebp]
	push	eax
	mov	ecx, DWORD PTR ___$ReturnUdt$[ebp]
	call	??0?$_Vector_iterator@V?$_Vector_val@U?$_Simple_types@H@std@@@std@@@std@@QAE@$$QAV01@@Z
	mov	ecx, DWORD PTR $T2[ebp]
	or	ecx, 1
	mov	DWORD PTR $T2[ebp], ecx
	mov	BYTE PTR __$EHRec$[ebp+8], 0
	lea	ecx, DWORD PTR __First$[ebp]
	call	??1?$_Vector_iterator@V?$_Vector_val@U?$_Simple_types@H@std@@@std@@@std@@QAE@XZ
	mov	DWORD PTR __$EHRec$[ebp+8], -1
	lea	ecx, DWORD PTR __Last$[ebp]
	call	??1?$_Vector_iterator@V?$_Vector_val@U?$_Simple_types@H@std@@@std@@@std@@QAE@XZ
	mov	eax, DWORD PTR ___$ReturnUdt$[ebp]

; 5184 : 	}

	mov	ecx, DWORD PTR __$EHRec$[ebp]
	mov	DWORD PTR fs:0, ecx
	pop	ecx
	pop	edi
	pop	esi
	pop	ebx
	add	esp, 240				; 000000f0H
	cmp	ebp, esp
	call	__RTC_CheckEsp
	mov	esp, ebp
	pop	ebp
	ret	0
_TEXT	ENDS
;	COMDAT text$x
text$x	SEGMENT
__unwindfunclet$??$max_element@V?$_Vector_iterator@V?$_Vector_val@U?$_Simple_types@H@std@@@std@@@std@@U?$less@X@2@@std@@YA?AV?$_Vector_iterator@V?$_Vector_val@U?$_Simple_types@H@std@@@std@@@0@V10@0U?$less@X@0@@Z$0:
	lea	ecx, DWORD PTR __Last$[ebp]
	jmp	??1?$_Vector_iterator@V?$_Vector_val@U?$_Simple_types@H@std@@@std@@@std@@QAE@XZ
__unwindfunclet$??$max_element@V?$_Vector_iterator@V?$_Vector_val@U?$_Simple_types@H@std@@@std@@@std@@U?$less@X@2@@std@@YA?AV?$_Vector_iterator@V?$_Vector_val@U?$_Simple_types@H@std@@@std@@@0@V10@0U?$less@X@0@@Z$1:
	lea	ecx, DWORD PTR __First$[ebp]
	jmp	??1?$_Vector_iterator@V?$_Vector_val@U?$_Simple_types@H@std@@@std@@@std@@QAE@XZ
__ehhandler$??$max_element@V?$_Vector_iterator@V?$_Vector_val@U?$_Simple_types@H@std@@@std@@@std@@U?$less@X@2@@std@@YA?AV?$_Vector_iterator@V?$_Vector_val@U?$_Simple_types@H@std@@@std@@@0@V10@0U?$less@X@0@@Z:
	mov	edx, DWORD PTR [esp+8]
	lea	eax, DWORD PTR [edx+12]
	mov	ecx, DWORD PTR [edx-244]
	xor	ecx, eax
	call	@__security_check_cookie@4
	mov	eax, OFFSET __ehfuncinfo$??$max_element@V?$_Vector_iterator@V?$_Vector_val@U?$_Simple_types@H@std@@@std@@@std@@U?$less@X@2@@std@@YA?AV?$_Vector_iterator@V?$_Vector_val@U?$_Simple_types@H@std@@@std@@@0@V10@0U?$less@X@0@@Z
	jmp	___CxxFrameHandler3
text$x	ENDS
??$max_element@V?$_Vector_iterator@V?$_Vector_val@U?$_Simple_types@H@std@@@std@@@std@@U?$less@X@2@@std@@YA?AV?$_Vector_iterator@V?$_Vector_val@U?$_Simple_types@H@std@@@std@@@0@V10@0U?$less@X@0@@Z ENDP ; std::max_element<std::_Vector_iterator<std::_Vector_val<std::_Simple_types<int> > >,std::less<void> >
; Function compile flags: /Odtp /RTCsu /ZI
; File c:\program files (x86)\microsoft visual studio\2017\professional\vc\tools\msvc\14.16.27023\include\vector
;	COMDAT ??$_Range_construct_or_tidy@PAH@?$vector@HV?$allocator@H@std@@@std@@AAEXPAH0Uforward_iterator_tag@1@@Z
_TEXT	SEGMENT
tv128 = -224						; size = 4
_this$ = -24						; size = 4
__$EHRec$ = -16						; size = 16
__First$ = 8						; size = 4
__Last$ = 12						; size = 4
___formal$ = 16						; size = 1
??$_Range_construct_or_tidy@PAH@?$vector@HV?$allocator@H@std@@@std@@AAEXPAH0Uforward_iterator_tag@1@@Z PROC ; std::vector<int,std::allocator<int> >::_Range_construct_or_tidy<int *>, COMDAT
; _this$ = ecx

; 704  : 		{	// initialize with [_First, _Last), avoid leaking, forward iterators

	push	ebp
	mov	ebp, esp
	push	-1
	push	__ehhandler$??$_Range_construct_or_tidy@PAH@?$vector@HV?$allocator@H@std@@@std@@AAEXPAH0Uforward_iterator_tag@1@@Z
	mov	eax, DWORD PTR fs:0
	push	eax
	push	ecx
	sub	esp, 208				; 000000d0H
	push	ebx
	push	esi
	push	edi
	push	ecx
	lea	edi, DWORD PTR [ebp-224]
	mov	ecx, 52					; 00000034H
	mov	eax, -858993460				; ccccccccH
	rep stosd
	pop	ecx
	mov	eax, DWORD PTR ___security_cookie
	xor	eax, ebp
	push	eax
	lea	eax, DWORD PTR __$EHRec$[ebp+4]
	mov	DWORD PTR fs:0, eax
	mov	DWORD PTR __$EHRec$[ebp], esp
	mov	DWORD PTR _this$[ebp], ecx
	mov	ecx, OFFSET __2D4BA300_vector
	call	@__CheckForDebuggerJustMyCode@4

; 705  : 		if (_Buy(_Convert_size<size_type>(static_cast<size_t>(_STD distance(_First, _Last)))))

	mov	eax, DWORD PTR __Last$[ebp]
	push	eax
	mov	ecx, DWORD PTR __First$[ebp]
	push	ecx
	call	??$distance@PAH@std@@YAHPAH0@Z		; std::distance<int *>
	add	esp, 8
	push	eax
	call	??$_Convert_size@I@std@@YAII@Z		; std::_Convert_size<unsigned int>
	add	esp, 4
	push	eax
	mov	ecx, DWORD PTR _this$[ebp]
	call	?_Buy@?$vector@HV?$allocator@H@std@@@std@@AAE_NI@Z ; std::vector<int,std::allocator<int> >::_Buy
	movzx	edx, al
	test	edx, edx
	je	SHORT $LN4@Range_cons

; 706  : 			{	// nonzero, fill it
; 707  : 			_TRY_BEGIN

	mov	DWORD PTR __$EHRec$[ebp+12], 0

; 708  : 			this->_Mylast() = _Ucopy(_First, _Last, this->_Myfirst());

	mov	ecx, DWORD PTR _this$[ebp]
	call	?_Myfirst@?$_Vector_alloc@U?$_Vec_base_types@HV?$allocator@H@std@@@std@@@std@@QAEAAPAHXZ ; std::_Vector_alloc<std::_Vec_base_types<int,std::allocator<int> > >::_Myfirst
	mov	eax, DWORD PTR [eax]
	push	eax
	mov	ecx, DWORD PTR __Last$[ebp]
	push	ecx
	mov	edx, DWORD PTR __First$[ebp]
	push	edx
	mov	ecx, DWORD PTR _this$[ebp]
	call	??$_Ucopy@PAH@?$vector@HV?$allocator@H@std@@@std@@AAEPAHPAH00@Z ; std::vector<int,std::allocator<int> >::_Ucopy<int *>
	mov	DWORD PTR tv128[ebp], eax
	mov	ecx, DWORD PTR _this$[ebp]
	call	?_Mylast@?$_Vector_alloc@U?$_Vec_base_types@HV?$allocator@H@std@@@std@@@std@@QAEAAPAHXZ ; std::_Vector_alloc<std::_Vec_base_types<int,std::allocator<int> > >::_Mylast
	mov	ecx, DWORD PTR tv128[ebp]
	mov	DWORD PTR [eax], ecx
	jmp	SHORT $LN5@Range_cons
__catch$??$_Range_construct_or_tidy@PAH@?$vector@HV?$allocator@H@std@@@std@@AAEXPAH0Uforward_iterator_tag@1@@Z$0:

; 709  : 			_CATCH_ALL
; 710  : 			_Tidy();

	mov	ecx, DWORD PTR _this$[ebp]
	call	?_Tidy@?$vector@HV?$allocator@H@std@@@std@@AAEXXZ ; std::vector<int,std::allocator<int> >::_Tidy

; 711  : 			_RERAISE;

	push	0
	push	0
	call	__CxxThrowException@8

; 712  : 			_CATCH_END

	mov	eax, $LN8@Range_cons
	ret	0
$LN5@Range_cons:
	mov	DWORD PTR __$EHRec$[ebp+12], -1
	jmp	SHORT $LN4@Range_cons
$LN8@Range_cons:
	mov	DWORD PTR __$EHRec$[ebp+12], -1
$LN4@Range_cons:

; 713  : 			}
; 714  : 		}

	mov	ecx, DWORD PTR __$EHRec$[ebp+4]
	mov	DWORD PTR fs:0, ecx
	pop	ecx
	pop	edi
	pop	esi
	pop	ebx
	add	esp, 224				; 000000e0H
	cmp	ebp, esp
	call	__RTC_CheckEsp
	mov	esp, ebp
	pop	ebp
	ret	12					; 0000000cH
_TEXT	ENDS
;	COMDAT text$x
text$x	SEGMENT
__ehhandler$??$_Range_construct_or_tidy@PAH@?$vector@HV?$allocator@H@std@@@std@@AAEXPAH0Uforward_iterator_tag@1@@Z:
	mov	edx, DWORD PTR [esp+8]
	lea	eax, DWORD PTR [edx+12]
	mov	ecx, DWORD PTR [edx-228]
	xor	ecx, eax
	call	@__security_check_cookie@4
	mov	eax, OFFSET __ehfuncinfo$??$_Range_construct_or_tidy@PAH@?$vector@HV?$allocator@H@std@@@std@@AAEXPAH0Uforward_iterator_tag@1@@Z
	jmp	___CxxFrameHandler3
text$x	ENDS
??$_Range_construct_or_tidy@PAH@?$vector@HV?$allocator@H@std@@@std@@AAEXPAH0Uforward_iterator_tag@1@@Z ENDP ; std::vector<int,std::allocator<int> >::_Range_construct_or_tidy<int *>
; Function compile flags: /Odtp /RTCsu /ZI
; File c:\program files (x86)\microsoft visual studio\2017\professional\vc\tools\msvc\14.16.27023\include\xutility
;	COMDAT ??$_Get_unwrapped@V?$_Vector_iterator@V?$_Vector_val@U?$_Simple_types@H@std@@@std@@@std@@$0A@@std@@YA@ABV?$_Vector_iterator@V?$_Vector_val@U?$_Simple_types@H@std@@@std@@@0@@Z
_TEXT	SEGMENT
__It$ = 8						; size = 4
??$_Get_unwrapped@V?$_Vector_iterator@V?$_Vector_val@U?$_Simple_types@H@std@@@std@@@std@@$0A@@std@@YA@ABV?$_Vector_iterator@V?$_Vector_val@U?$_Simple_types@H@std@@@std@@@0@@Z PROC ; std::_Get_unwrapped<std::_Vector_iterator<std::_Vector_val<std::_Simple_types<int> > >,0>, COMDAT

; 642  : 	{	// unwrap an iterator previously subjected to _Adl_verify_range or otherwise validated

	push	ebp
	mov	ebp, esp
	sub	esp, 192				; 000000c0H
	push	ebx
	push	esi
	push	edi
	lea	edi, DWORD PTR [ebp-192]
	mov	ecx, 48					; 00000030H
	mov	eax, -858993460				; ccccccccH
	rep stosd
	mov	ecx, OFFSET __DB64A6E0_xutility
	call	@__CheckForDebuggerJustMyCode@4

; 643  : 	return (_It._Unwrapped());

	mov	ecx, DWORD PTR __It$[ebp]
	call	?_Unwrapped@?$_Vector_iterator@V?$_Vector_val@U?$_Simple_types@H@std@@@std@@@std@@QBEPAHXZ ; std::_Vector_iterator<std::_Vector_val<std::_Simple_types<int> > >::_Unwrapped

; 644  : 	}

	pop	edi
	pop	esi
	pop	ebx
	add	esp, 192				; 000000c0H
	cmp	ebp, esp
	call	__RTC_CheckEsp
	mov	esp, ebp
	pop	ebp
	ret	0
??$_Get_unwrapped@V?$_Vector_iterator@V?$_Vector_val@U?$_Simple_types@H@std@@@std@@@std@@$0A@@std@@YA@ABV?$_Vector_iterator@V?$_Vector_val@U?$_Simple_types@H@std@@@std@@@0@@Z ENDP ; std::_Get_unwrapped<std::_Vector_iterator<std::_Vector_val<std::_Simple_types<int> > >,0>
_TEXT	ENDS
; Function compile flags: /Odtp /RTCsu /ZI
; File c:\program files (x86)\microsoft visual studio\2017\professional\vc\tools\msvc\14.16.27023\include\xutility
;	COMDAT ??$_Adl_verify_range@V?$_Vector_iterator@V?$_Vector_val@U?$_Simple_types@H@std@@@std@@@std@@V12@@std@@YAXABV?$_Vector_iterator@V?$_Vector_val@U?$_Simple_types@H@std@@@std@@@0@0@Z
_TEXT	SEGMENT
$T1 = -197						; size = 1
__First$ = 8						; size = 4
__Last$ = 12						; size = 4
??$_Adl_verify_range@V?$_Vector_iterator@V?$_Vector_val@U?$_Simple_types@H@std@@@std@@@std@@V12@@std@@YAXABV?$_Vector_iterator@V?$_Vector_val@U?$_Simple_types@H@std@@@std@@@0@0@Z PROC ; std::_Adl_verify_range<std::_Vector_iterator<std::_Vector_val<std::_Simple_types<int> > >,std::_Vector_iterator<std::_Vector_val<std::_Simple_types<int> > > >, COMDAT

; 615  : 	{	// check that [_First, _Last) forms an iterator range

	push	ebp
	mov	ebp, esp
	sub	esp, 204				; 000000ccH
	push	ebx
	push	esi
	push	edi
	lea	edi, DWORD PTR [ebp-204]
	mov	ecx, 51					; 00000033H
	mov	eax, -858993460				; ccccccccH
	rep stosd
	mov	ecx, OFFSET __DB64A6E0_xutility
	call	@__CheckForDebuggerJustMyCode@4

; 616  : 	_Adl_verify_range1(_First, _Last, bool_constant<_Range_verifiable_v<_Iter, _Sentinel>>{});

	xor	eax, eax
	mov	BYTE PTR $T1[ebp], al
	movzx	ecx, BYTE PTR $T1[ebp]
	push	ecx
	mov	edx, DWORD PTR __Last$[ebp]
	push	edx
	mov	eax, DWORD PTR __First$[ebp]
	push	eax
	call	??$_Adl_verify_range1@V?$_Vector_iterator@V?$_Vector_val@U?$_Simple_types@H@std@@@std@@@std@@V12@@std@@YAXABV?$_Vector_iterator@V?$_Vector_val@U?$_Simple_types@H@std@@@std@@@0@0U?$integral_constant@_N$00@0@@Z ; std::_Adl_verify_range1<std::_Vector_iterator<std::_Vector_val<std::_Simple_types<int> > >,std::_Vector_iterator<std::_Vector_val<std::_Simple_types<int> > > >
	add	esp, 12					; 0000000cH

; 617  : 	}

	pop	edi
	pop	esi
	pop	ebx
	add	esp, 204				; 000000ccH
	cmp	ebp, esp
	call	__RTC_CheckEsp
	mov	esp, ebp
	pop	ebp
	ret	0
??$_Adl_verify_range@V?$_Vector_iterator@V?$_Vector_val@U?$_Simple_types@H@std@@@std@@@std@@V12@@std@@YAXABV?$_Vector_iterator@V?$_Vector_val@U?$_Simple_types@H@std@@@std@@@0@0@Z ENDP ; std::_Adl_verify_range<std::_Vector_iterator<std::_Vector_val<std::_Simple_types<int> > >,std::_Vector_iterator<std::_Vector_val<std::_Simple_types<int> > > >
_TEXT	ENDS
; Function compile flags: /Odtp /RTCsu /ZI
; File c:\program files (x86)\microsoft visual studio\2017\professional\vc\tools\msvc\14.16.27023\include\vector
;	COMDAT ??$?0ABV?$allocator@H@std@@X@?$_Vector_alloc@U?$_Vec_base_types@HV?$allocator@H@std@@@std@@@std@@QAE@ABV?$allocator@H@1@@Z
_TEXT	SEGMENT
$T1 = -209						; size = 1
_this$ = -8						; size = 4
__Al$ = 8						; size = 4
??$?0ABV?$allocator@H@std@@X@?$_Vector_alloc@U?$_Vec_base_types@HV?$allocator@H@std@@@std@@@std@@QAE@ABV?$allocator@H@1@@Z PROC ; std::_Vector_alloc<std::_Vec_base_types<int,std::allocator<int> > >::_Vector_alloc<std::_Vec_base_types<int,std::allocator<int> > ><std::allocator<int> const &,void>, COMDAT
; _this$ = ecx

; 455  : 		{	// construct allocator from _Al

	push	ebp
	mov	ebp, esp
	sub	esp, 216				; 000000d8H
	push	ebx
	push	esi
	push	edi
	push	ecx
	lea	edi, DWORD PTR [ebp-216]
	mov	ecx, 54					; 00000036H
	mov	eax, -858993460				; ccccccccH
	rep stosd
	pop	ecx
	mov	DWORD PTR _this$[ebp], ecx
	mov	ecx, OFFSET __2D4BA300_vector
	call	@__CheckForDebuggerJustMyCode@4

; 453  : 		: _Mypair(_One_then_variadic_args_t(),

	mov	eax, DWORD PTR __Al$[ebp]
	push	eax
	call	??$forward@ABV?$allocator@H@std@@@std@@YAABV?$allocator@H@0@ABV10@@Z ; std::forward<std::allocator<int> const &>
	add	esp, 4
	push	eax
	movzx	ecx, BYTE PTR $T1[ebp]
	push	ecx
	mov	ecx, DWORD PTR _this$[ebp]
	call	??$?0ABV?$allocator@H@std@@$$V@?$_Compressed_pair@V?$allocator@H@std@@V?$_Vector_val@U?$_Simple_types@H@std@@@2@$00@std@@QAE@U_One_then_variadic_args_t@1@ABV?$allocator@H@1@@Z ; std::_Compressed_pair<std::allocator<int>,std::_Vector_val<std::_Simple_types<int> >,1>::_Compressed_pair<std::allocator<int>,std::_Vector_val<std::_Simple_types<int> >,1><std::allocator<int> const &>

; 456  : 		_Alloc_proxy();

	mov	ecx, DWORD PTR _this$[ebp]
	call	?_Alloc_proxy@?$_Vector_alloc@U?$_Vec_base_types@HV?$allocator@H@std@@@std@@@std@@QAEXXZ ; std::_Vector_alloc<std::_Vec_base_types<int,std::allocator<int> > >::_Alloc_proxy

; 457  : 		}

	mov	eax, DWORD PTR _this$[ebp]
	pop	edi
	pop	esi
	pop	ebx
	add	esp, 216				; 000000d8H
	cmp	ebp, esp
	call	__RTC_CheckEsp
	mov	esp, ebp
	pop	ebp
	ret	4
??$?0ABV?$allocator@H@std@@X@?$_Vector_alloc@U?$_Vec_base_types@HV?$allocator@H@std@@@std@@@std@@QAE@ABV?$allocator@H@1@@Z ENDP ; std::_Vector_alloc<std::_Vec_base_types<int,std::allocator<int> > >::_Vector_alloc<std::_Vec_base_types<int,std::allocator<int> > ><std::allocator<int> const &,void>
_TEXT	ENDS
; Function compile flags: /Odtp /RTCsu /ZI
; File c:\program files (x86)\microsoft visual studio\2017\professional\vc\tools\msvc\14.16.27023\include\xlocale
;	COMDAT ??$_Maklocstr@D@std@@YAPADPBDPADABU_Cvtvec@@@Z
_TEXT	SEGMENT
__Ptrnext$1 = -32					; size = 4
__Ptrdest$ = -20					; size = 4
__Count$ = -8						; size = 4
__Ptr$ = 8						; size = 4
___formal$ = 12						; size = 4
___formal$ = 16						; size = 4
??$_Maklocstr@D@std@@YAPADPBDPADABU_Cvtvec@@@Z PROC	; std::_Maklocstr<char>, COMDAT

; 664  : 	{	// convert C string to _Elem sequence using _Cvtvec

	push	ebp
	mov	ebp, esp
	sub	esp, 228				; 000000e4H
	push	ebx
	push	esi
	push	edi
	lea	edi, DWORD PTR [ebp-228]
	mov	ecx, 57					; 00000039H
	mov	eax, -858993460				; ccccccccH
	rep stosd
	mov	ecx, OFFSET __9C246413_xlocale
	call	@__CheckForDebuggerJustMyCode@4

; 665  : 	size_t _Count = _CSTD strlen(_Ptr) + 1;

	mov	eax, DWORD PTR __Ptr$[ebp]
	push	eax
	call	_strlen
	add	esp, 4
	add	eax, 1
	mov	DWORD PTR __Count$[ebp], eax

; 666  : 
; 667  : 	_Elem *_Ptrdest = (_Elem *)_calloc_dbg(_Count, sizeof (_Elem),

	mov	esi, esp
	push	668					; 0000029cH
	push	OFFSET ??_C@_0GL@ILDCNCK@c?3?2program?5files?5?$CIx86?$CJ?2microsof@
	push	2
	push	1
	mov	eax, DWORD PTR __Count$[ebp]
	push	eax
	call	DWORD PTR __imp___calloc_dbg
	add	esp, 20					; 00000014H
	cmp	esi, esp
	call	__RTC_CheckEsp
	mov	DWORD PTR __Ptrdest$[ebp], eax

; 668  : 		_CRT_BLOCK, __FILE__, __LINE__);
; 669  : 
; 670  : 	if (!_Ptrdest)

	cmp	DWORD PTR __Ptrdest$[ebp], 0
	jne	SHORT $LN5@Maklocstr

; 671  : 		_Xbad_alloc();

	call	?_Xbad_alloc@std@@YAXXZ			; std::_Xbad_alloc
$LN5@Maklocstr:

; 672  : 
; 673  : 	for (_Elem *_Ptrnext = _Ptrdest; 0 < _Count; --_Count, ++_Ptrnext, ++_Ptr)

	mov	eax, DWORD PTR __Ptrdest$[ebp]
	mov	DWORD PTR __Ptrnext$1[ebp], eax
	jmp	SHORT $LN4@Maklocstr
$LN2@Maklocstr:
	mov	eax, DWORD PTR __Count$[ebp]
	sub	eax, 1
	mov	DWORD PTR __Count$[ebp], eax
	mov	ecx, DWORD PTR __Ptrnext$1[ebp]
	add	ecx, 1
	mov	DWORD PTR __Ptrnext$1[ebp], ecx
	mov	edx, DWORD PTR __Ptr$[ebp]
	add	edx, 1
	mov	DWORD PTR __Ptr$[ebp], edx
$LN4@Maklocstr:
	cmp	DWORD PTR __Count$[ebp], 0
	jbe	SHORT $LN3@Maklocstr

; 674  : 		*_Ptrnext = (_Elem)(unsigned char)*_Ptr;

	mov	eax, DWORD PTR __Ptrnext$1[ebp]
	mov	ecx, DWORD PTR __Ptr$[ebp]
	mov	dl, BYTE PTR [ecx]
	mov	BYTE PTR [eax], dl
	jmp	SHORT $LN2@Maklocstr
$LN3@Maklocstr:

; 675  : 
; 676  : 	return (_Ptrdest);

	mov	eax, DWORD PTR __Ptrdest$[ebp]
$LN6@Maklocstr:

; 677  : 	}

	pop	edi
	pop	esi
	pop	ebx
	add	esp, 228				; 000000e4H
	cmp	ebp, esp
	call	__RTC_CheckEsp
	mov	esp, ebp
	pop	ebp
	ret	0
??$_Maklocstr@D@std@@YAPADPBDPADABU_Cvtvec@@@Z ENDP	; std::_Maklocstr<char>
_TEXT	ENDS
; Function compile flags: /Odtp /RTCsu /ZI
; File c:\program files (x86)\microsoft visual studio\2017\professional\vc\tools\msvc\14.16.27023\include\xmemory0
;	COMDAT ??$_Get_size_of_n@$07@std@@YAII@Z
_TEXT	SEGMENT
__Result$ = -20						; size = 4
__Max_possible$ = -8					; size = 4
__Count$ = 8						; size = 4
??$_Get_size_of_n@$07@std@@YAII@Z PROC			; std::_Get_size_of_n<8>, COMDAT

; 23   : 	{	// gets the size of _Count copies of a type sized _Ty_size

	push	ebp
	mov	ebp, esp
	sub	esp, 216				; 000000d8H
	push	ebx
	push	esi
	push	edi
	lea	edi, DWORD PTR [ebp-216]
	mov	ecx, 54					; 00000036H
	mov	eax, -858993460				; ccccccccH
	rep stosd
	mov	ecx, OFFSET __0A3767B1_xmemory0
	call	@__CheckForDebuggerJustMyCode@4

; 24   : 	constexpr size_t _Max_possible = static_cast<size_t>(-1) / _Ty_size;

	mov	DWORD PTR __Max_possible$[ebp], 536870911 ; 1fffffffH

; 25   : 	size_t _Result = _Count * _Ty_size;

	mov	eax, DWORD PTR __Count$[ebp]
	shl	eax, 3
	mov	DWORD PTR __Result$[ebp], eax

; 26   : 	if (_Max_possible < _Count)

	cmp	DWORD PTR __Count$[ebp], 536870911	; 1fffffffH
	jbe	SHORT $LN2@Get_size_o

; 27   : 		{	// multiply overflow, try allocating all of memory and assume the
; 28   : 			// allocation function will throw bad_alloc
; 29   : 		_Result = static_cast<size_t>(-1);

	mov	DWORD PTR __Result$[ebp], -1
$LN2@Get_size_o:

; 30   : 		}
; 31   : 
; 32   : 	return (_Result);

	mov	eax, DWORD PTR __Result$[ebp]

; 33   : 	}

	pop	edi
	pop	esi
	pop	ebx
	add	esp, 216				; 000000d8H
	cmp	ebp, esp
	call	__RTC_CheckEsp
	mov	esp, ebp
	pop	ebp
	ret	0
??$_Get_size_of_n@$07@std@@YAII@Z ENDP			; std::_Get_size_of_n<8>
_TEXT	ENDS
; Function compile flags: /Odtp /RTCsu /ZI
; File c:\program files (x86)\microsoft visual studio\2017\professional\vc\tools\msvc\14.16.27023\include\xmemory0
;	COMDAT ??$construct@U_Container_proxy@std@@U12@@?$_Default_allocator_traits@V?$allocator@U_Container_proxy@std@@@std@@@std@@SAXAAV?$allocator@U_Container_proxy@std@@@1@QAU_Container_proxy@1@$$QAU31@@Z
_TEXT	SEGMENT
$T1 = -200						; size = 4
___formal$ = 8						; size = 4
__Ptr$ = 12						; size = 4
_<_Args_0>$ = 16					; size = 4
??$construct@U_Container_proxy@std@@U12@@?$_Default_allocator_traits@V?$allocator@U_Container_proxy@std@@@std@@@std@@SAXAAV?$allocator@U_Container_proxy@std@@@1@QAU_Container_proxy@1@$$QAU31@@Z PROC ; std::_Default_allocator_traits<std::allocator<std::_Container_proxy> >::construct<std::_Container_proxy,std::_Container_proxy>, COMDAT

; 879  : 		{	// construct _Objty(_Types...) at _Ptr

	push	ebp
	mov	ebp, esp
	sub	esp, 204				; 000000ccH
	push	ebx
	push	esi
	push	edi
	lea	edi, DWORD PTR [ebp-204]
	mov	ecx, 51					; 00000033H
	mov	eax, -858993460				; ccccccccH
	rep stosd
	mov	ecx, OFFSET __0A3767B1_xmemory0
	call	@__CheckForDebuggerJustMyCode@4
	mov	eax, DWORD PTR __Ptr$[ebp]
	push	eax
	push	8
	call	??2@YAPAXIPAX@Z				; operator new
	add	esp, 8
	mov	DWORD PTR $T1[ebp], eax
	mov	ecx, DWORD PTR _<_Args_0>$[ebp]
	push	ecx
	call	??$forward@U_Container_proxy@std@@@std@@YA$$QAU_Container_proxy@0@AAU10@@Z ; std::forward<std::_Container_proxy>
	add	esp, 4
	mov	edx, DWORD PTR [eax]
	mov	eax, DWORD PTR [eax+4]
	mov	ecx, DWORD PTR $T1[ebp]
	mov	DWORD PTR [ecx], edx
	mov	DWORD PTR [ecx+4], eax

; 880  : 		::new (const_cast<void *>(static_cast<const volatile void *>(_Ptr)))
; 881  : 			_Objty(_STD forward<_Types>(_Args)...);
; 882  : 		}

	pop	edi
	pop	esi
	pop	ebx
	add	esp, 204				; 000000ccH
	cmp	ebp, esp
	call	__RTC_CheckEsp
	mov	esp, ebp
	pop	ebp
	ret	0
??$construct@U_Container_proxy@std@@U12@@?$_Default_allocator_traits@V?$allocator@U_Container_proxy@std@@@std@@@std@@SAXAAV?$allocator@U_Container_proxy@std@@@1@QAU_Container_proxy@1@$$QAU31@@Z ENDP ; std::_Default_allocator_traits<std::allocator<std::_Container_proxy> >::construct<std::_Container_proxy,std::_Container_proxy>
_TEXT	ENDS
; Function compile flags: /Odtp /RTCsu /ZI
; File c:\program files (x86)\microsoft visual studio\2017\professional\vc\tools\msvc\14.16.27023\include\xstddef
;	COMDAT ??$_Unfancy@U_Container_proxy@std@@@std@@YAPAU_Container_proxy@0@PAU10@@Z
_TEXT	SEGMENT
__Ptr$ = 8						; size = 4
??$_Unfancy@U_Container_proxy@std@@@std@@YAPAU_Container_proxy@0@PAU10@@Z PROC ; std::_Unfancy<std::_Container_proxy>, COMDAT

; 345  : 	{	// do nothing for plain pointers

	push	ebp
	mov	ebp, esp
	sub	esp, 192				; 000000c0H
	push	ebx
	push	esi
	push	edi
	lea	edi, DWORD PTR [ebp-192]
	mov	ecx, 48					; 00000030H
	mov	eax, -858993460				; ccccccccH
	rep stosd
	mov	ecx, OFFSET __AA43626F_xstddef
	call	@__CheckForDebuggerJustMyCode@4

; 346  : 	return (_Ptr);

	mov	eax, DWORD PTR __Ptr$[ebp]

; 347  : 	}

	pop	edi
	pop	esi
	pop	ebx
	add	esp, 192				; 000000c0H
	cmp	ebp, esp
	call	__RTC_CheckEsp
	mov	esp, ebp
	pop	ebp
	ret	0
??$_Unfancy@U_Container_proxy@std@@@std@@YAPAU_Container_proxy@0@PAU10@@Z ENDP ; std::_Unfancy<std::_Container_proxy>
_TEXT	ENDS
; Function compile flags: /Odtp /RTCsu /ZI
; File c:\program files (x86)\microsoft visual studio\2017\professional\vc\tools\msvc\14.16.27023\include\xmemory0
;	COMDAT ??$_Destroy_range@V?$allocator@H@std@@@std@@YAXPAH0AAV?$allocator@H@0@@Z
_TEXT	SEGMENT
$T1 = -197						; size = 1
__First$ = 8						; size = 4
__Last$ = 12						; size = 4
__Al$ = 16						; size = 4
??$_Destroy_range@V?$allocator@H@std@@@std@@YAXPAH0AAV?$allocator@H@0@@Z PROC ; std::_Destroy_range<std::allocator<int> >, COMDAT

; 1154 : 	{	// destroy [_First, _Last), choose optimization

	push	ebp
	mov	ebp, esp
	sub	esp, 204				; 000000ccH
	push	ebx
	push	esi
	push	edi
	lea	edi, DWORD PTR [ebp-204]
	mov	ecx, 51					; 00000033H
	mov	eax, -858993460				; ccccccccH
	rep stosd
	mov	ecx, OFFSET __0A3767B1_xmemory0
	call	@__CheckForDebuggerJustMyCode@4

; 1155 : 		// note that this is an optimization for debug mode codegen;
; 1156 : 		// in release mode the BE removes all of this
; 1157 : 	using _Val = typename _Alloc::value_type;
; 1158 : 	_Destroy_range1(_First, _Last, _Al, bool_constant<conjunction_v<

	xor	eax, eax
	mov	BYTE PTR $T1[ebp], al
	movzx	ecx, BYTE PTR $T1[ebp]
	push	ecx
	mov	edx, DWORD PTR __Al$[ebp]
	push	edx
	mov	eax, DWORD PTR __Last$[ebp]
	push	eax
	mov	ecx, DWORD PTR __First$[ebp]
	push	ecx
	call	??$_Destroy_range1@V?$allocator@H@std@@@std@@YAXPAH0AAV?$allocator@H@0@U?$integral_constant@_N$00@0@@Z ; std::_Destroy_range1<std::allocator<int> >
	add	esp, 16					; 00000010H

; 1159 : 		is_trivially_destructible<_Val>,
; 1160 : 		_Uses_default_destroy<_Alloc, _Val *>>>{});
; 1161 : 	}

	pop	edi
	pop	esi
	pop	ebx
	add	esp, 204				; 000000ccH
	cmp	ebp, esp
	call	__RTC_CheckEsp
	mov	esp, ebp
	pop	ebp
	ret	0
??$_Destroy_range@V?$allocator@H@std@@@std@@YAXPAH0AAV?$allocator@H@0@@Z ENDP ; std::_Destroy_range<std::allocator<int> >
_TEXT	ENDS
; Function compile flags: /Odtp /RTCsu /ZI
; File c:\program files (x86)\microsoft visual studio\2017\professional\vc\tools\msvc\14.16.27023\include\xmemory0
;	COMDAT ??$_Destroy_range@V?$allocator@V?$vector@HV?$allocator@H@std@@@std@@@std@@@std@@YAXPAV?$vector@HV?$allocator@H@std@@@0@0AAV?$allocator@V?$vector@HV?$allocator@H@std@@@std@@@0@@Z
_TEXT	SEGMENT
$T1 = -197						; size = 1
__First$ = 8						; size = 4
__Last$ = 12						; size = 4
__Al$ = 16						; size = 4
??$_Destroy_range@V?$allocator@V?$vector@HV?$allocator@H@std@@@std@@@std@@@std@@YAXPAV?$vector@HV?$allocator@H@std@@@0@0AAV?$allocator@V?$vector@HV?$allocator@H@std@@@std@@@0@@Z PROC ; std::_Destroy_range<std::allocator<std::vector<int,std::allocator<int> > > >, COMDAT

; 1154 : 	{	// destroy [_First, _Last), choose optimization

	push	ebp
	mov	ebp, esp
	sub	esp, 204				; 000000ccH
	push	ebx
	push	esi
	push	edi
	lea	edi, DWORD PTR [ebp-204]
	mov	ecx, 51					; 00000033H
	mov	eax, -858993460				; ccccccccH
	rep stosd
	mov	ecx, OFFSET __0A3767B1_xmemory0
	call	@__CheckForDebuggerJustMyCode@4

; 1155 : 		// note that this is an optimization for debug mode codegen;
; 1156 : 		// in release mode the BE removes all of this
; 1157 : 	using _Val = typename _Alloc::value_type;
; 1158 : 	_Destroy_range1(_First, _Last, _Al, bool_constant<conjunction_v<

	xor	eax, eax
	mov	BYTE PTR $T1[ebp], al
	movzx	ecx, BYTE PTR $T1[ebp]
	push	ecx
	mov	edx, DWORD PTR __Al$[ebp]
	push	edx
	mov	eax, DWORD PTR __Last$[ebp]
	push	eax
	mov	ecx, DWORD PTR __First$[ebp]
	push	ecx
	call	??$_Destroy_range1@V?$allocator@V?$vector@HV?$allocator@H@std@@@std@@@std@@@std@@YAXPAV?$vector@HV?$allocator@H@std@@@0@0AAV?$allocator@V?$vector@HV?$allocator@H@std@@@std@@@0@U?$integral_constant@_N$0A@@0@@Z ; std::_Destroy_range1<std::allocator<std::vector<int,std::allocator<int> > > >
	add	esp, 16					; 00000010H

; 1159 : 		is_trivially_destructible<_Val>,
; 1160 : 		_Uses_default_destroy<_Alloc, _Val *>>>{});
; 1161 : 	}

	pop	edi
	pop	esi
	pop	ebx
	add	esp, 204				; 000000ccH
	cmp	ebp, esp
	call	__RTC_CheckEsp
	mov	esp, ebp
	pop	ebp
	ret	0
??$_Destroy_range@V?$allocator@V?$vector@HV?$allocator@H@std@@@std@@@std@@@std@@YAXPAV?$vector@HV?$allocator@H@std@@@0@0AAV?$allocator@V?$vector@HV?$allocator@H@std@@@std@@@0@@Z ENDP ; std::_Destroy_range<std::allocator<std::vector<int,std::allocator<int> > > >
_TEXT	ENDS
; Function compile flags: /Odtp /RTCsu /ZI
; File c:\program files (x86)\microsoft visual studio\2017\professional\vc\tools\msvc\14.16.27023\include\xmemory0
;	COMDAT ??$?0V?$vector@HV?$allocator@H@std@@@std@@@?$allocator@U_Container_proxy@std@@@std@@QAE@ABV?$allocator@V?$vector@HV?$allocator@H@std@@@std@@@1@@Z
_TEXT	SEGMENT
_this$ = -20						; size = 4
__$EHRec$ = -12						; size = 12
___formal$ = 8						; size = 4
??$?0V?$vector@HV?$allocator@H@std@@@std@@@?$allocator@U_Container_proxy@std@@@std@@QAE@ABV?$allocator@V?$vector@HV?$allocator@H@std@@@std@@@1@@Z PROC ; std::allocator<std::_Container_proxy>::allocator<std::_Container_proxy><std::vector<int,std::allocator<int> > >, COMDAT
; _this$ = ecx

; 986  : 		{	// construct from a related allocator (do nothing)

	push	ebp
	mov	ebp, esp
	push	-1
	push	__ehhandler$??$?0V?$vector@HV?$allocator@H@std@@@std@@@?$allocator@U_Container_proxy@std@@@std@@QAE@ABV?$allocator@V?$vector@HV?$allocator@H@std@@@std@@@1@@Z
	mov	eax, DWORD PTR fs:0
	push	eax
	sub	esp, 204				; 000000ccH
	push	ebx
	push	esi
	push	edi
	push	ecx
	lea	edi, DWORD PTR [ebp-216]
	mov	ecx, 51					; 00000033H
	mov	eax, -858993460				; ccccccccH
	rep stosd
	pop	ecx
	mov	eax, DWORD PTR ___security_cookie
	xor	eax, ebp
	push	eax
	lea	eax, DWORD PTR __$EHRec$[ebp]
	mov	DWORD PTR fs:0, eax
	mov	DWORD PTR _this$[ebp], ecx
	mov	ecx, OFFSET __0A3767B1_xmemory0
	call	@__CheckForDebuggerJustMyCode@4

; 987  : 		}

	mov	eax, DWORD PTR _this$[ebp]
	mov	ecx, DWORD PTR __$EHRec$[ebp]
	mov	DWORD PTR fs:0, ecx
	pop	ecx
	pop	edi
	pop	esi
	pop	ebx
	add	esp, 216				; 000000d8H
	cmp	ebp, esp
	call	__RTC_CheckEsp
	mov	esp, ebp
	pop	ebp
	ret	4
_TEXT	ENDS
;	COMDAT text$x
text$x	SEGMENT
__ehhandler$??$?0V?$vector@HV?$allocator@H@std@@@std@@@?$allocator@U_Container_proxy@std@@@std@@QAE@ABV?$allocator@V?$vector@HV?$allocator@H@std@@@std@@@1@@Z:
	mov	edx, DWORD PTR [esp+8]
	lea	eax, DWORD PTR [edx+12]
	mov	ecx, DWORD PTR [edx-220]
	xor	ecx, eax
	call	@__security_check_cookie@4
	mov	eax, OFFSET __ehfuncinfo$??$?0V?$vector@HV?$allocator@H@std@@@std@@@?$allocator@U_Container_proxy@std@@@std@@QAE@ABV?$allocator@V?$vector@HV?$allocator@H@std@@@std@@@1@@Z
	jmp	___CxxFrameHandler3
text$x	ENDS
??$?0V?$vector@HV?$allocator@H@std@@@std@@@?$allocator@U_Container_proxy@std@@@std@@QAE@ABV?$allocator@V?$vector@HV?$allocator@H@std@@@std@@@1@@Z ENDP ; std::allocator<std::_Container_proxy>::allocator<std::_Container_proxy><std::vector<int,std::allocator<int> > >
; Function compile flags: /Odtp /RTCsu /ZI
; File c:\program files (x86)\microsoft visual studio\2017\professional\vc\tools\msvc\14.16.27023\include\xmemory0
;	COMDAT ??$_Deallocate_plain@V?$allocator@U_Container_proxy@std@@@std@@$0A@@std@@YAXAAV?$allocator@U_Container_proxy@std@@@0@QAU_Container_proxy@0@@Z
_TEXT	SEGMENT
__Al$ = 8						; size = 4
__Ptr$ = 12						; size = 4
??$_Deallocate_plain@V?$allocator@U_Container_proxy@std@@@std@@$0A@@std@@YAXAAV?$allocator@U_Container_proxy@std@@@0@QAU_Container_proxy@0@@Z PROC ; std::_Deallocate_plain<std::allocator<std::_Container_proxy>,0>, COMDAT

; 1212 : 	{	// deallocate a plain pointer using an allocator, non-fancy pointers special case

	push	ebp
	mov	ebp, esp
	sub	esp, 192				; 000000c0H
	push	ebx
	push	esi
	push	edi
	lea	edi, DWORD PTR [ebp-192]
	mov	ecx, 48					; 00000030H
	mov	eax, -858993460				; ccccccccH
	rep stosd
	mov	ecx, OFFSET __0A3767B1_xmemory0
	call	@__CheckForDebuggerJustMyCode@4

; 1213 : 	allocator_traits<_Alloc>::deallocate(_Al, _Ptr, 1);

	push	1
	mov	eax, DWORD PTR __Ptr$[ebp]
	push	eax
	mov	ecx, DWORD PTR __Al$[ebp]
	push	ecx
	call	?deallocate@?$_Default_allocator_traits@V?$allocator@U_Container_proxy@std@@@std@@@std@@SAXAAV?$allocator@U_Container_proxy@std@@@2@QAU_Container_proxy@2@I@Z ; std::_Default_allocator_traits<std::allocator<std::_Container_proxy> >::deallocate
	add	esp, 12					; 0000000cH

; 1214 : 	}

	pop	edi
	pop	esi
	pop	ebx
	add	esp, 192				; 000000c0H
	cmp	ebp, esp
	call	__RTC_CheckEsp
	mov	esp, ebp
	pop	ebp
	ret	0
??$_Deallocate_plain@V?$allocator@U_Container_proxy@std@@@std@@$0A@@std@@YAXAAV?$allocator@U_Container_proxy@std@@@0@QAU_Container_proxy@0@@Z ENDP ; std::_Deallocate_plain<std::allocator<std::_Container_proxy>,0>
_TEXT	ENDS
; Function compile flags: /Odtp /RTCsu /ZI
; File c:\program files (x86)\microsoft visual studio\2017\professional\vc\tools\msvc\14.16.27023\include\xmemory0
;	COMDAT ??$destroy@U_Container_proxy@std@@@?$_Default_allocator_traits@V?$allocator@U_Container_proxy@std@@@std@@@std@@SAXAAV?$allocator@U_Container_proxy@std@@@1@QAU_Container_proxy@1@@Z
_TEXT	SEGMENT
___formal$ = 8						; size = 4
__Ptr$ = 12						; size = 4
??$destroy@U_Container_proxy@std@@@?$_Default_allocator_traits@V?$allocator@U_Container_proxy@std@@@std@@@std@@SAXAAV?$allocator@U_Container_proxy@std@@@1@QAU_Container_proxy@1@@Z PROC ; std::_Default_allocator_traits<std::allocator<std::_Container_proxy> >::destroy<std::_Container_proxy>, COMDAT

; 886  : 		{	// destroy object at _Ptr

	push	ebp
	mov	ebp, esp
	sub	esp, 192				; 000000c0H
	push	ebx
	push	esi
	push	edi
	lea	edi, DWORD PTR [ebp-192]
	mov	ecx, 48					; 00000030H
	mov	eax, -858993460				; ccccccccH
	rep stosd
	mov	ecx, OFFSET __0A3767B1_xmemory0
	call	@__CheckForDebuggerJustMyCode@4

; 887  : 		_Ptr->~_Uty();
; 888  : 		}

	pop	edi
	pop	esi
	pop	ebx
	add	esp, 192				; 000000c0H
	cmp	ebp, esp
	call	__RTC_CheckEsp
	mov	esp, ebp
	pop	ebp
	ret	0
??$destroy@U_Container_proxy@std@@@?$_Default_allocator_traits@V?$allocator@U_Container_proxy@std@@@std@@@std@@SAXAAV?$allocator@U_Container_proxy@std@@@1@QAU_Container_proxy@1@@Z ENDP ; std::_Default_allocator_traits<std::allocator<std::_Container_proxy> >::destroy<std::_Container_proxy>
_TEXT	ENDS
; Function compile flags: /Odtp /RTCsu /ZI
; File c:\program files (x86)\microsoft visual studio\2017\professional\vc\tools\msvc\14.16.27023\include\xmemory0
;	COMDAT ?deallocate@?$_Default_allocator_traits@V?$allocator@U_Container_proxy@std@@@std@@@std@@SAXAAV?$allocator@U_Container_proxy@std@@@2@QAU_Container_proxy@2@I@Z
_TEXT	SEGMENT
___formal$ = 8						; size = 4
__Ptr$ = 12						; size = 4
__Count$ = 16						; size = 4
?deallocate@?$_Default_allocator_traits@V?$allocator@U_Container_proxy@std@@@std@@@std@@SAXAAV?$allocator@U_Container_proxy@std@@@2@QAU_Container_proxy@2@I@Z PROC ; std::_Default_allocator_traits<std::allocator<std::_Container_proxy> >::deallocate, COMDAT

; 871  : 		{	// deallocate _Count elements at _Ptr

	push	ebp
	mov	ebp, esp
	sub	esp, 192				; 000000c0H
	push	ebx
	push	esi
	push	edi
	lea	edi, DWORD PTR [ebp-192]
	mov	ecx, 48					; 00000030H
	mov	eax, -858993460				; ccccccccH
	rep stosd
	mov	ecx, OFFSET __0A3767B1_xmemory0
	call	@__CheckForDebuggerJustMyCode@4

; 872  : 		// no overflow check on the following multiply; we assume _Allocate did that check
; 873  : 		_Deallocate<_New_alignof<value_type>>(_Ptr, sizeof(value_type) * _Count);

	mov	eax, DWORD PTR __Count$[ebp]
	shl	eax, 3
	push	eax
	mov	ecx, DWORD PTR __Ptr$[ebp]
	push	ecx
	call	??$_Deallocate@$07$0A@@std@@YAXPAXI@Z	; std::_Deallocate<8,0>
	add	esp, 8

; 874  : 		}

	pop	edi
	pop	esi
	pop	ebx
	add	esp, 192				; 000000c0H
	cmp	ebp, esp
	call	__RTC_CheckEsp
	mov	esp, ebp
	pop	ebp
	ret	0
?deallocate@?$_Default_allocator_traits@V?$allocator@U_Container_proxy@std@@@std@@@std@@SAXAAV?$allocator@U_Container_proxy@std@@@2@QAU_Container_proxy@2@I@Z ENDP ; std::_Default_allocator_traits<std::allocator<std::_Container_proxy> >::deallocate
_TEXT	ENDS
; Function compile flags: /Odtp /RTCsu /ZI
; File c:\program files (x86)\microsoft visual studio\2017\professional\vc\tools\msvc\14.16.27023\include\xmemory0
;	COMDAT ??$?0H@?$allocator@U_Container_proxy@std@@@std@@QAE@ABV?$allocator@H@1@@Z
_TEXT	SEGMENT
_this$ = -20						; size = 4
__$EHRec$ = -12						; size = 12
___formal$ = 8						; size = 4
??$?0H@?$allocator@U_Container_proxy@std@@@std@@QAE@ABV?$allocator@H@1@@Z PROC ; std::allocator<std::_Container_proxy>::allocator<std::_Container_proxy><int>, COMDAT
; _this$ = ecx

; 986  : 		{	// construct from a related allocator (do nothing)

	push	ebp
	mov	ebp, esp
	push	-1
	push	__ehhandler$??$?0H@?$allocator@U_Container_proxy@std@@@std@@QAE@ABV?$allocator@H@1@@Z
	mov	eax, DWORD PTR fs:0
	push	eax
	sub	esp, 204				; 000000ccH
	push	ebx
	push	esi
	push	edi
	push	ecx
	lea	edi, DWORD PTR [ebp-216]
	mov	ecx, 51					; 00000033H
	mov	eax, -858993460				; ccccccccH
	rep stosd
	pop	ecx
	mov	eax, DWORD PTR ___security_cookie
	xor	eax, ebp
	push	eax
	lea	eax, DWORD PTR __$EHRec$[ebp]
	mov	DWORD PTR fs:0, eax
	mov	DWORD PTR _this$[ebp], ecx
	mov	ecx, OFFSET __0A3767B1_xmemory0
	call	@__CheckForDebuggerJustMyCode@4

; 987  : 		}

	mov	eax, DWORD PTR _this$[ebp]
	mov	ecx, DWORD PTR __$EHRec$[ebp]
	mov	DWORD PTR fs:0, ecx
	pop	ecx
	pop	edi
	pop	esi
	pop	ebx
	add	esp, 216				; 000000d8H
	cmp	ebp, esp
	call	__RTC_CheckEsp
	mov	esp, ebp
	pop	ebp
	ret	4
_TEXT	ENDS
;	COMDAT text$x
text$x	SEGMENT
__ehhandler$??$?0H@?$allocator@U_Container_proxy@std@@@std@@QAE@ABV?$allocator@H@1@@Z:
	mov	edx, DWORD PTR [esp+8]
	lea	eax, DWORD PTR [edx+12]
	mov	ecx, DWORD PTR [edx-220]
	xor	ecx, eax
	call	@__security_check_cookie@4
	mov	eax, OFFSET __ehfuncinfo$??$?0H@?$allocator@U_Container_proxy@std@@@std@@QAE@ABV?$allocator@H@1@@Z
	jmp	___CxxFrameHandler3
text$x	ENDS
??$?0H@?$allocator@U_Container_proxy@std@@@std@@QAE@ABV?$allocator@H@1@@Z ENDP ; std::allocator<std::_Container_proxy>::allocator<std::_Container_proxy><int>
; Function compile flags: /Odtp /RTCsu /ZI
; File c:\program files (x86)\microsoft visual studio\2017\professional\vc\tools\msvc\14.16.27023\include\xmemory0
;	COMDAT ?allocate@?$allocator@U_Container_proxy@std@@@std@@QAEPAU_Container_proxy@2@I@Z
_TEXT	SEGMENT
_this$ = -8						; size = 4
__Count$ = 8						; size = 4
?allocate@?$allocator@U_Container_proxy@std@@@std@@QAEPAU_Container_proxy@2@I@Z PROC ; std::allocator<std::_Container_proxy>::allocate, COMDAT
; _this$ = ecx

; 996  : 		{	// allocate array of _Count elements

	push	ebp
	mov	ebp, esp
	sub	esp, 204				; 000000ccH
	push	ebx
	push	esi
	push	edi
	push	ecx
	lea	edi, DWORD PTR [ebp-204]
	mov	ecx, 51					; 00000033H
	mov	eax, -858993460				; ccccccccH
	rep stosd
	pop	ecx
	mov	DWORD PTR _this$[ebp], ecx
	mov	ecx, OFFSET __0A3767B1_xmemory0
	call	@__CheckForDebuggerJustMyCode@4

; 997  : 		return (static_cast<_Ty *>(_Allocate<_New_alignof<_Ty>>(_Get_size_of_n<sizeof(_Ty)>(_Count))));

	mov	eax, DWORD PTR __Count$[ebp]
	push	eax
	call	??$_Get_size_of_n@$07@std@@YAII@Z	; std::_Get_size_of_n<8>
	add	esp, 4
	push	eax
	call	??$_Allocate@$07U_Default_allocate_traits@std@@$0A@@std@@YAPAXI@Z ; std::_Allocate<8,std::_Default_allocate_traits,0>
	add	esp, 4

; 998  : 		}

	pop	edi
	pop	esi
	pop	ebx
	add	esp, 204				; 000000ccH
	cmp	ebp, esp
	call	__RTC_CheckEsp
	mov	esp, ebp
	pop	ebp
	ret	4
?allocate@?$allocator@U_Container_proxy@std@@@std@@QAEPAU_Container_proxy@2@I@Z ENDP ; std::allocator<std::_Container_proxy>::allocate
_TEXT	ENDS
; Function compile flags: /Odtp /RTCsu /ZI
; File c:\program files (x86)\microsoft visual studio\2017\professional\vc\tools\msvc\14.16.27023\include\xmemory0
;	COMDAT ??$_Deallocate@$07$0A@@std@@YAXPAXI@Z
_TEXT	SEGMENT
__Ptr$ = 8						; size = 4
__Bytes$ = 12						; size = 4
??$_Deallocate@$07$0A@@std@@YAXPAXI@Z PROC		; std::_Deallocate<8,0>, COMDAT

; 199  : 	{	// deallocate storage allocated by _Allocate when !_HAS_ALIGNED_NEW || _Align <= __STDCPP_DEFAULT_NEW_ALIGNMENT__

	push	ebp
	mov	ebp, esp
	sub	esp, 192				; 000000c0H
	push	ebx
	push	esi
	push	edi
	lea	edi, DWORD PTR [ebp-192]
	mov	ecx, 48					; 00000030H
	mov	eax, -858993460				; ccccccccH
	rep stosd
	mov	ecx, OFFSET __0A3767B1_xmemory0
	call	@__CheckForDebuggerJustMyCode@4

; 200  :  #if defined(_M_IX86) || defined(_M_X64)
; 201  : 	if (_Bytes >= _Big_allocation_threshold)

	cmp	DWORD PTR __Bytes$[ebp], 4096		; 00001000H
	jb	SHORT $LN2@Deallocate

; 202  : 		{	// boost the alignment of big allocations to help autovectorization
; 203  : 		_Adjust_manually_vector_aligned(_Ptr, _Bytes);

	lea	eax, DWORD PTR __Bytes$[ebp]
	push	eax
	lea	ecx, DWORD PTR __Ptr$[ebp]
	push	ecx
	call	?_Adjust_manually_vector_aligned@std@@YAXAAPAXAAI@Z ; std::_Adjust_manually_vector_aligned
	add	esp, 8
$LN2@Deallocate:

; 204  : 		}
; 205  :  #endif /* defined(_M_IX86) || defined(_M_X64) */
; 206  : 
; 207  : 	::operator delete(_Ptr, _Bytes);

	mov	eax, DWORD PTR __Bytes$[ebp]
	push	eax
	mov	ecx, DWORD PTR __Ptr$[ebp]
	push	ecx
	call	??3@YAXPAXI@Z				; operator delete
	add	esp, 8

; 208  : 	}

	pop	edi
	pop	esi
	pop	ebx
	add	esp, 192				; 000000c0H
	cmp	ebp, esp
	call	__RTC_CheckEsp
	mov	esp, ebp
	pop	ebp
	ret	0
??$_Deallocate@$07$0A@@std@@YAXPAXI@Z ENDP		; std::_Deallocate<8,0>
_TEXT	ENDS
; Function compile flags: /Odtp /RTCsu /ZI
; File c:\program files (x86)\microsoft visual studio\2017\professional\vc\tools\msvc\14.16.27023\include\xmemory0
;	COMDAT ??$_Allocate@$07U_Default_allocate_traits@std@@$0A@@std@@YAPAXI@Z
_TEXT	SEGMENT
__Bytes$ = 8						; size = 4
??$_Allocate@$07U_Default_allocate_traits@std@@$0A@@std@@YAPAXI@Z PROC ; std::_Allocate<8,std::_Default_allocate_traits,0>, COMDAT

; 180  : 	{	// allocate _Bytes when !_HAS_ALIGNED_NEW || _Align <= __STDCPP_DEFAULT_NEW_ALIGNMENT__

	push	ebp
	mov	ebp, esp
	sub	esp, 192				; 000000c0H
	push	ebx
	push	esi
	push	edi
	lea	edi, DWORD PTR [ebp-192]
	mov	ecx, 48					; 00000030H
	mov	eax, -858993460				; ccccccccH
	rep stosd
	mov	ecx, OFFSET __0A3767B1_xmemory0
	call	@__CheckForDebuggerJustMyCode@4

; 181  :  #if defined(_M_IX86) || defined(_M_X64)
; 182  : 	if (_Bytes >= _Big_allocation_threshold)

	cmp	DWORD PTR __Bytes$[ebp], 4096		; 00001000H
	jb	SHORT $LN2@Allocate

; 183  : 		{	// boost the alignment of big allocations to help autovectorization
; 184  : 		return (_Allocate_manually_vector_aligned<_Traits>(_Bytes));

	mov	eax, DWORD PTR __Bytes$[ebp]
	push	eax
	call	??$_Allocate_manually_vector_aligned@U_Default_allocate_traits@std@@@std@@YAPAXI@Z ; std::_Allocate_manually_vector_aligned<std::_Default_allocate_traits>
	add	esp, 4
	jmp	SHORT $LN1@Allocate
$LN2@Allocate:

; 185  : 		}
; 186  :  #endif /* defined(_M_IX86) || defined(_M_X64) */
; 187  : 
; 188  : 	if (_Bytes != 0)

	cmp	DWORD PTR __Bytes$[ebp], 0
	je	SHORT $LN3@Allocate

; 189  : 		{
; 190  : 		return (_Traits::_Allocate(_Bytes));

	mov	eax, DWORD PTR __Bytes$[ebp]
	push	eax
	call	?_Allocate@_Default_allocate_traits@std@@SAPAXI@Z ; std::_Default_allocate_traits::_Allocate
	add	esp, 4
	jmp	SHORT $LN1@Allocate
$LN3@Allocate:

; 191  : 		}
; 192  : 
; 193  : 	return (nullptr);

	xor	eax, eax
$LN1@Allocate:

; 194  : 	}

	pop	edi
	pop	esi
	pop	ebx
	add	esp, 192				; 000000c0H
	cmp	ebp, esp
	call	__RTC_CheckEsp
	mov	esp, ebp
	pop	ebp
	ret	0
??$_Allocate@$07U_Default_allocate_traits@std@@$0A@@std@@YAPAXI@Z ENDP ; std::_Allocate<8,std::_Default_allocate_traits,0>
_TEXT	ENDS
; Function compile flags: /Odtp /RTCsu /ZI
; File c:\program files (x86)\microsoft visual studio\2017\professional\vc\tools\msvc\14.16.27023\include\ostream
;	COMDAT ??Bsentry@?$basic_ostream@DU?$char_traits@D@std@@@std@@QBE_NXZ
_TEXT	SEGMENT
_this$ = -8						; size = 4
??Bsentry@?$basic_ostream@DU?$char_traits@D@std@@@std@@QBE_NXZ PROC ; std::basic_ostream<char,std::char_traits<char> >::sentry::operator bool, COMDAT
; _this$ = ecx

; 152  : 			{	// test if stream state okay

	push	ebp
	mov	ebp, esp
	sub	esp, 204				; 000000ccH
	push	ebx
	push	esi
	push	edi
	push	ecx
	lea	edi, DWORD PTR [ebp-204]
	mov	ecx, 51					; 00000033H
	mov	eax, -858993460				; ccccccccH
	rep stosd
	pop	ecx
	mov	DWORD PTR _this$[ebp], ecx
	mov	ecx, OFFSET __8F34BED7_ostream
	call	@__CheckForDebuggerJustMyCode@4

; 153  : 			return (_Ok);

	mov	eax, DWORD PTR _this$[ebp]
	mov	al, BYTE PTR [eax+4]

; 154  : 			}

	pop	edi
	pop	esi
	pop	ebx
	add	esp, 204				; 000000ccH
	cmp	ebp, esp
	call	__RTC_CheckEsp
	mov	esp, ebp
	pop	ebp
	ret	0
??Bsentry@?$basic_ostream@DU?$char_traits@D@std@@@std@@QBE_NXZ ENDP ; std::basic_ostream<char,std::char_traits<char> >::sentry::operator bool
_TEXT	ENDS
; Function compile flags: /Odtp /RTCsu /ZI
; File c:\program files (x86)\microsoft visual studio\2017\professional\vc\tools\msvc\14.16.27023\include\ostream
;	COMDAT ??1sentry@?$basic_ostream@DU?$char_traits@D@std@@@std@@QAE@XZ
_TEXT	SEGMENT
_this$ = -20						; size = 4
__$EHRec$ = -12						; size = 12
??1sentry@?$basic_ostream@DU?$char_traits@D@std@@@std@@QAE@XZ PROC ; std::basic_ostream<char,std::char_traits<char> >::sentry::~sentry, COMDAT
; _this$ = ecx

; 135  : 			{	// destroy the object

	push	ebp
	mov	ebp, esp
	push	-1
	push	__ehhandler$??1sentry@?$basic_ostream@DU?$char_traits@D@std@@@std@@QAE@XZ
	mov	eax, DWORD PTR fs:0
	push	eax
	sub	esp, 204				; 000000ccH
	push	ebx
	push	esi
	push	edi
	push	ecx
	lea	edi, DWORD PTR [ebp-216]
	mov	ecx, 51					; 00000033H
	mov	eax, -858993460				; ccccccccH
	rep stosd
	pop	ecx
	mov	eax, DWORD PTR ___security_cookie
	xor	eax, ebp
	push	eax
	lea	eax, DWORD PTR __$EHRec$[ebp]
	mov	DWORD PTR fs:0, eax
	mov	DWORD PTR _this$[ebp], ecx
	mov	ecx, OFFSET __8F34BED7_ostream
	call	@__CheckForDebuggerJustMyCode@4

; 136  :  #if _HAS_EXCEPTIONS
; 137  : 			if (!_STD uncaught_exception())	// TRANSITION, OS#15518458

	call	?uncaught_exception@std@@YA_NXZ		; std::uncaught_exception
	movzx	eax, al
	test	eax, eax
	jne	SHORT $LN1@sentry

; 138  : 				{
; 139  : 				this->_Myostr._Osfx();

	mov	esi, esp
	mov	eax, DWORD PTR _this$[ebp]
	mov	ecx, DWORD PTR [eax]
	call	DWORD PTR __imp_?_Osfx@?$basic_ostream@DU?$char_traits@D@std@@@std@@QAEXXZ
	cmp	esi, esp
	call	__RTC_CheckEsp
$LN1@sentry:

; 140  : 				}
; 141  :  #else /* _HAS_EXCEPTIONS */
; 142  : 			this->_Myostr._Osfx();
; 143  :  #endif /* _HAS_EXCEPTIONS */
; 144  : 			}

	mov	ecx, DWORD PTR _this$[ebp]
	call	??1_Sentry_base@?$basic_ostream@DU?$char_traits@D@std@@@std@@QAE@XZ ; std::basic_ostream<char,std::char_traits<char> >::_Sentry_base::~_Sentry_base
	mov	ecx, DWORD PTR __$EHRec$[ebp]
	mov	DWORD PTR fs:0, ecx
	pop	ecx
	pop	edi
	pop	esi
	pop	ebx
	add	esp, 216				; 000000d8H
	cmp	ebp, esp
	call	__RTC_CheckEsp
	mov	esp, ebp
	pop	ebp
	ret	0
_TEXT	ENDS
;	COMDAT text$x
text$x	SEGMENT
__ehhandler$??1sentry@?$basic_ostream@DU?$char_traits@D@std@@@std@@QAE@XZ:
	mov	edx, DWORD PTR [esp+8]
	lea	eax, DWORD PTR [edx+12]
	mov	ecx, DWORD PTR [edx-220]
	xor	ecx, eax
	call	@__security_check_cookie@4
	mov	eax, OFFSET __ehfuncinfo$??1sentry@?$basic_ostream@DU?$char_traits@D@std@@@std@@QAE@XZ
	jmp	___CxxFrameHandler3
text$x	ENDS
??1sentry@?$basic_ostream@DU?$char_traits@D@std@@@std@@QAE@XZ ENDP ; std::basic_ostream<char,std::char_traits<char> >::sentry::~sentry
; Function compile flags: /Odtp /RTCsu /ZI
; File c:\program files (x86)\microsoft visual studio\2017\professional\vc\tools\msvc\14.16.27023\include\ostream
;	COMDAT ??0sentry@?$basic_ostream@DU?$char_traits@D@std@@@std@@QAE@AAV12@@Z
_TEXT	SEGMENT
_this$ = -20						; size = 4
__$EHRec$ = -12						; size = 12
__Ostr$ = 8						; size = 4
??0sentry@?$basic_ostream@DU?$char_traits@D@std@@@std@@QAE@AAV12@@Z PROC ; std::basic_ostream<char,std::char_traits<char> >::sentry::sentry, COMDAT
; _this$ = ecx

; 121  : 			{	// construct locking and testing stream

	push	ebp
	mov	ebp, esp
	push	-1
	push	__ehhandler$??0sentry@?$basic_ostream@DU?$char_traits@D@std@@@std@@QAE@AAV12@@Z
	mov	eax, DWORD PTR fs:0
	push	eax
	sub	esp, 204				; 000000ccH
	push	ebx
	push	esi
	push	edi
	push	ecx
	lea	edi, DWORD PTR [ebp-216]
	mov	ecx, 51					; 00000033H
	mov	eax, -858993460				; ccccccccH
	rep stosd
	pop	ecx
	mov	eax, DWORD PTR ___security_cookie
	xor	eax, ebp
	push	eax
	lea	eax, DWORD PTR __$EHRec$[ebp]
	mov	DWORD PTR fs:0, eax
	mov	DWORD PTR _this$[ebp], ecx
	mov	ecx, OFFSET __8F34BED7_ostream
	call	@__CheckForDebuggerJustMyCode@4

; 120  : 			: _Sentry_base(_Ostr)

	mov	eax, DWORD PTR __Ostr$[ebp]
	push	eax
	mov	ecx, DWORD PTR _this$[ebp]
	call	??0_Sentry_base@?$basic_ostream@DU?$char_traits@D@std@@@std@@QAE@AAV12@@Z ; std::basic_ostream<char,std::char_traits<char> >::_Sentry_base::_Sentry_base
	mov	DWORD PTR __$EHRec$[ebp+8], 0

; 122  : 			if (_Ostr.good() && _Ostr.tie() != nullptr && _Ostr.tie() != &_Ostr)

	mov	eax, DWORD PTR __Ostr$[ebp]
	mov	ecx, DWORD PTR [eax]
	mov	edx, DWORD PTR __Ostr$[ebp]
	add	edx, DWORD PTR [ecx+4]
	mov	esi, esp
	mov	ecx, edx
	call	DWORD PTR __imp_?good@ios_base@std@@QBE_NXZ
	cmp	esi, esp
	call	__RTC_CheckEsp
	movzx	eax, al
	test	eax, eax
	je	SHORT $LN2@sentry
	mov	eax, DWORD PTR __Ostr$[ebp]
	mov	ecx, DWORD PTR [eax]
	mov	edx, DWORD PTR __Ostr$[ebp]
	add	edx, DWORD PTR [ecx+4]
	mov	esi, esp
	mov	ecx, edx
	call	DWORD PTR __imp_?tie@?$basic_ios@DU?$char_traits@D@std@@@std@@QBEPAV?$basic_ostream@DU?$char_traits@D@std@@@2@XZ
	cmp	esi, esp
	call	__RTC_CheckEsp
	test	eax, eax
	je	SHORT $LN2@sentry
	mov	eax, DWORD PTR __Ostr$[ebp]
	mov	ecx, DWORD PTR [eax]
	mov	edx, DWORD PTR __Ostr$[ebp]
	add	edx, DWORD PTR [ecx+4]
	mov	esi, esp
	mov	ecx, edx
	call	DWORD PTR __imp_?tie@?$basic_ios@DU?$char_traits@D@std@@@std@@QBEPAV?$basic_ostream@DU?$char_traits@D@std@@@2@XZ
	cmp	esi, esp
	call	__RTC_CheckEsp
	cmp	eax, DWORD PTR __Ostr$[ebp]
	je	SHORT $LN2@sentry

; 123  : 				_Ostr.tie()->flush();

	mov	eax, DWORD PTR __Ostr$[ebp]
	mov	ecx, DWORD PTR [eax]
	mov	edx, DWORD PTR __Ostr$[ebp]
	add	edx, DWORD PTR [ecx+4]
	mov	esi, esp
	mov	ecx, edx
	call	DWORD PTR __imp_?tie@?$basic_ios@DU?$char_traits@D@std@@@std@@QBEPAV?$basic_ostream@DU?$char_traits@D@std@@@2@XZ
	cmp	esi, esp
	call	__RTC_CheckEsp
	mov	esi, esp
	mov	ecx, eax
	call	DWORD PTR __imp_?flush@?$basic_ostream@DU?$char_traits@D@std@@@std@@QAEAAV12@XZ
	cmp	esi, esp
	call	__RTC_CheckEsp
$LN2@sentry:

; 124  : 			_Ok = _Ostr.good();	// store test only after flushing tie

	mov	eax, DWORD PTR __Ostr$[ebp]
	mov	ecx, DWORD PTR [eax]
	mov	edx, DWORD PTR __Ostr$[ebp]
	add	edx, DWORD PTR [ecx+4]
	mov	esi, esp
	mov	ecx, edx
	call	DWORD PTR __imp_?good@ios_base@std@@QBE_NXZ
	cmp	esi, esp
	call	__RTC_CheckEsp
	mov	ecx, DWORD PTR _this$[ebp]
	mov	BYTE PTR [ecx+4], al

; 125  : 			}

	mov	DWORD PTR __$EHRec$[ebp+8], -1
	mov	eax, DWORD PTR _this$[ebp]
	mov	ecx, DWORD PTR __$EHRec$[ebp]
	mov	DWORD PTR fs:0, ecx
	pop	ecx
	pop	edi
	pop	esi
	pop	ebx
	add	esp, 216				; 000000d8H
	cmp	ebp, esp
	call	__RTC_CheckEsp
	mov	esp, ebp
	pop	ebp
	ret	4
_TEXT	ENDS
;	COMDAT text$x
text$x	SEGMENT
__unwindfunclet$??0sentry@?$basic_ostream@DU?$char_traits@D@std@@@std@@QAE@AAV12@@Z$0:
	mov	ecx, DWORD PTR _this$[ebp]
	jmp	??1_Sentry_base@?$basic_ostream@DU?$char_traits@D@std@@@std@@QAE@XZ ; std::basic_ostream<char,std::char_traits<char> >::_Sentry_base::~_Sentry_base
__ehhandler$??0sentry@?$basic_ostream@DU?$char_traits@D@std@@@std@@QAE@AAV12@@Z:
	mov	edx, DWORD PTR [esp+8]
	lea	eax, DWORD PTR [edx+12]
	mov	ecx, DWORD PTR [edx-220]
	xor	ecx, eax
	call	@__security_check_cookie@4
	mov	eax, OFFSET __ehfuncinfo$??0sentry@?$basic_ostream@DU?$char_traits@D@std@@@std@@QAE@AAV12@@Z
	jmp	___CxxFrameHandler3
text$x	ENDS
??0sentry@?$basic_ostream@DU?$char_traits@D@std@@@std@@QAE@AAV12@@Z ENDP ; std::basic_ostream<char,std::char_traits<char> >::sentry::sentry
; Function compile flags: /Odtp /RTCsu /ZI
; File c:\program files (x86)\microsoft visual studio\2017\professional\vc\tools\msvc\14.16.27023\include\ostream
;	COMDAT ??1_Sentry_base@?$basic_ostream@DU?$char_traits@D@std@@@std@@QAE@XZ
_TEXT	SEGMENT
tv92 = -224						; size = 4
tv86 = -220						; size = 4
tv72 = -220						; size = 4
_this$ = -20						; size = 4
__$EHRec$ = -12						; size = 12
??1_Sentry_base@?$basic_ostream@DU?$char_traits@D@std@@@std@@QAE@XZ PROC ; std::basic_ostream<char,std::char_traits<char> >::_Sentry_base::~_Sentry_base, COMDAT
; _this$ = ecx

; 105  : 			{	// destroy after unlocking

	push	ebp
	mov	ebp, esp
	push	-1
	push	__ehhandler$??1_Sentry_base@?$basic_ostream@DU?$char_traits@D@std@@@std@@QAE@XZ
	mov	eax, DWORD PTR fs:0
	push	eax
	sub	esp, 212				; 000000d4H
	push	ebx
	push	esi
	push	edi
	push	ecx
	lea	edi, DWORD PTR [ebp-224]
	mov	ecx, 53					; 00000035H
	mov	eax, -858993460				; ccccccccH
	rep stosd
	pop	ecx
	mov	eax, DWORD PTR ___security_cookie
	xor	eax, ebp
	push	eax
	lea	eax, DWORD PTR __$EHRec$[ebp]
	mov	DWORD PTR fs:0, eax
	mov	DWORD PTR _this$[ebp], ecx
	mov	ecx, OFFSET __8F34BED7_ostream
	call	@__CheckForDebuggerJustMyCode@4

; 106  : 			if (_Myostr.rdbuf() != nullptr)

	mov	eax, DWORD PTR _this$[ebp]
	mov	ecx, DWORD PTR [eax]
	mov	DWORD PTR tv72[ebp], ecx
	mov	edx, DWORD PTR tv72[ebp]
	mov	eax, DWORD PTR [edx]
	mov	ecx, DWORD PTR tv72[ebp]
	add	ecx, DWORD PTR [eax+4]
	mov	esi, esp
	call	DWORD PTR __imp_?rdbuf@?$basic_ios@DU?$char_traits@D@std@@@std@@QBEPAV?$basic_streambuf@DU?$char_traits@D@std@@@2@XZ
	cmp	esi, esp
	call	__RTC_CheckEsp
	test	eax, eax
	je	SHORT $LN3@Sentry_bas

; 107  : 				_Myostr.rdbuf()->_Unlock();

	mov	eax, DWORD PTR _this$[ebp]
	mov	ecx, DWORD PTR [eax]
	mov	DWORD PTR tv86[ebp], ecx
	mov	edx, DWORD PTR tv86[ebp]
	mov	eax, DWORD PTR [edx]
	mov	ecx, DWORD PTR tv86[ebp]
	add	ecx, DWORD PTR [eax+4]
	mov	esi, esp
	call	DWORD PTR __imp_?rdbuf@?$basic_ios@DU?$char_traits@D@std@@@std@@QBEPAV?$basic_streambuf@DU?$char_traits@D@std@@@2@XZ
	cmp	esi, esp
	call	__RTC_CheckEsp
	mov	DWORD PTR tv92[ebp], eax
	mov	ecx, DWORD PTR tv92[ebp]
	mov	edx, DWORD PTR [ecx]
	mov	esi, esp
	mov	ecx, DWORD PTR tv92[ebp]
	mov	eax, DWORD PTR [edx+8]
	call	eax
	cmp	esi, esp
	call	__RTC_CheckEsp
$LN3@Sentry_bas:

; 108  : 			}

	mov	ecx, DWORD PTR __$EHRec$[ebp]
	mov	DWORD PTR fs:0, ecx
	pop	ecx
	pop	edi
	pop	esi
	pop	ebx
	add	esp, 224				; 000000e0H
	cmp	ebp, esp
	call	__RTC_CheckEsp
	mov	esp, ebp
	pop	ebp
	ret	0
_TEXT	ENDS
;	COMDAT text$x
text$x	SEGMENT
__ehhandler$??1_Sentry_base@?$basic_ostream@DU?$char_traits@D@std@@@std@@QAE@XZ:
	mov	edx, DWORD PTR [esp+8]
	lea	eax, DWORD PTR [edx+12]
	mov	ecx, DWORD PTR [edx-228]
	xor	ecx, eax
	call	@__security_check_cookie@4
	mov	eax, OFFSET __ehfuncinfo$??1_Sentry_base@?$basic_ostream@DU?$char_traits@D@std@@@std@@QAE@XZ
	jmp	___CxxFrameHandler3
text$x	ENDS
??1_Sentry_base@?$basic_ostream@DU?$char_traits@D@std@@@std@@QAE@XZ ENDP ; std::basic_ostream<char,std::char_traits<char> >::_Sentry_base::~_Sentry_base
; Function compile flags: /Odtp /RTCsu /ZI
; File c:\program files (x86)\microsoft visual studio\2017\professional\vc\tools\msvc\14.16.27023\include\ostream
;	COMDAT ??0_Sentry_base@?$basic_ostream@DU?$char_traits@D@std@@@std@@QAE@AAV12@@Z
_TEXT	SEGMENT
tv93 = -212						; size = 4
tv87 = -208						; size = 4
tv73 = -208						; size = 4
_this$ = -8						; size = 4
__Ostr$ = 8						; size = 4
??0_Sentry_base@?$basic_ostream@DU?$char_traits@D@std@@@std@@QAE@AAV12@@Z PROC ; std::basic_ostream<char,std::char_traits<char> >::_Sentry_base::_Sentry_base, COMDAT
; _this$ = ecx

; 99   : 			{	// lock the stream buffer, if there

	push	ebp
	mov	ebp, esp
	sub	esp, 212				; 000000d4H
	push	ebx
	push	esi
	push	edi
	push	ecx
	lea	edi, DWORD PTR [ebp-212]
	mov	ecx, 53					; 00000035H
	mov	eax, -858993460				; ccccccccH
	rep stosd
	pop	ecx
	mov	DWORD PTR _this$[ebp], ecx
	mov	ecx, OFFSET __8F34BED7_ostream
	call	@__CheckForDebuggerJustMyCode@4

; 98   : 			: _Myostr(_Ostr)

	mov	eax, DWORD PTR _this$[ebp]
	mov	ecx, DWORD PTR __Ostr$[ebp]
	mov	DWORD PTR [eax], ecx

; 100  : 			if (_Myostr.rdbuf() != nullptr)

	mov	eax, DWORD PTR _this$[ebp]
	mov	ecx, DWORD PTR [eax]
	mov	DWORD PTR tv73[ebp], ecx
	mov	edx, DWORD PTR tv73[ebp]
	mov	eax, DWORD PTR [edx]
	mov	ecx, DWORD PTR tv73[ebp]
	add	ecx, DWORD PTR [eax+4]
	mov	esi, esp
	call	DWORD PTR __imp_?rdbuf@?$basic_ios@DU?$char_traits@D@std@@@std@@QBEPAV?$basic_streambuf@DU?$char_traits@D@std@@@2@XZ
	cmp	esi, esp
	call	__RTC_CheckEsp
	test	eax, eax
	je	SHORT $LN1@Sentry_bas

; 101  : 				_Myostr.rdbuf()->_Lock();

	mov	eax, DWORD PTR _this$[ebp]
	mov	ecx, DWORD PTR [eax]
	mov	DWORD PTR tv87[ebp], ecx
	mov	edx, DWORD PTR tv87[ebp]
	mov	eax, DWORD PTR [edx]
	mov	ecx, DWORD PTR tv87[ebp]
	add	ecx, DWORD PTR [eax+4]
	mov	esi, esp
	call	DWORD PTR __imp_?rdbuf@?$basic_ios@DU?$char_traits@D@std@@@std@@QBEPAV?$basic_streambuf@DU?$char_traits@D@std@@@2@XZ
	cmp	esi, esp
	call	__RTC_CheckEsp
	mov	DWORD PTR tv93[ebp], eax
	mov	ecx, DWORD PTR tv93[ebp]
	mov	edx, DWORD PTR [ecx]
	mov	esi, esp
	mov	ecx, DWORD PTR tv93[ebp]
	mov	eax, DWORD PTR [edx+4]
	call	eax
	cmp	esi, esp
	call	__RTC_CheckEsp
$LN1@Sentry_bas:

; 102  : 			}

	mov	eax, DWORD PTR _this$[ebp]
	pop	edi
	pop	esi
	pop	ebx
	add	esp, 212				; 000000d4H
	cmp	ebp, esp
	call	__RTC_CheckEsp
	mov	esp, ebp
	pop	ebp
	ret	4
??0_Sentry_base@?$basic_ostream@DU?$char_traits@D@std@@@std@@QAE@AAV12@@Z ENDP ; std::basic_ostream<char,std::char_traits<char> >::_Sentry_base::_Sentry_base
_TEXT	ENDS
; Function compile flags: /Odtp /RTCsu /ZI
; File c:\program files (x86)\microsoft visual studio\2017\professional\vc\tools\msvc\14.16.27023\include\xmemory0
;	COMDAT ??$destroy@H@?$_Default_allocator_traits@V?$allocator@H@std@@@std@@SAXAAV?$allocator@H@1@QAH@Z
_TEXT	SEGMENT
___formal$ = 8						; size = 4
__Ptr$ = 12						; size = 4
??$destroy@H@?$_Default_allocator_traits@V?$allocator@H@std@@@std@@SAXAAV?$allocator@H@1@QAH@Z PROC ; std::_Default_allocator_traits<std::allocator<int> >::destroy<int>, COMDAT

; 886  : 		{	// destroy object at _Ptr

	push	ebp
	mov	ebp, esp
	sub	esp, 192				; 000000c0H
	push	ebx
	push	esi
	push	edi
	lea	edi, DWORD PTR [ebp-192]
	mov	ecx, 48					; 00000030H
	mov	eax, -858993460				; ccccccccH
	rep stosd
	mov	ecx, OFFSET __0A3767B1_xmemory0
	call	@__CheckForDebuggerJustMyCode@4

; 887  : 		_Ptr->~_Uty();
; 888  : 		}

	pop	edi
	pop	esi
	pop	ebx
	add	esp, 192				; 000000c0H
	cmp	ebp, esp
	call	__RTC_CheckEsp
	mov	esp, ebp
	pop	ebp
	ret	0
??$destroy@H@?$_Default_allocator_traits@V?$allocator@H@std@@@std@@SAXAAV?$allocator@H@1@QAH@Z ENDP ; std::_Default_allocator_traits<std::allocator<int> >::destroy<int>
_TEXT	ENDS
; Function compile flags: /Odtp /RTCsu /ZI
; File c:\program files (x86)\microsoft visual studio\2017\professional\vc\tools\msvc\14.16.27023\include\xstddef
;	COMDAT ??$_Unfancy@H@std@@YAPAHPAH@Z
_TEXT	SEGMENT
__Ptr$ = 8						; size = 4
??$_Unfancy@H@std@@YAPAHPAH@Z PROC			; std::_Unfancy<int>, COMDAT

; 345  : 	{	// do nothing for plain pointers

	push	ebp
	mov	ebp, esp
	sub	esp, 192				; 000000c0H
	push	ebx
	push	esi
	push	edi
	lea	edi, DWORD PTR [ebp-192]
	mov	ecx, 48					; 00000030H
	mov	eax, -858993460				; ccccccccH
	rep stosd
	mov	ecx, OFFSET __AA43626F_xstddef
	call	@__CheckForDebuggerJustMyCode@4

; 346  : 	return (_Ptr);

	mov	eax, DWORD PTR __Ptr$[ebp]

; 347  : 	}

	pop	edi
	pop	esi
	pop	ebx
	add	esp, 192				; 000000c0H
	cmp	ebp, esp
	call	__RTC_CheckEsp
	mov	esp, ebp
	pop	ebp
	ret	0
??$_Unfancy@H@std@@YAPAHPAH@Z ENDP			; std::_Unfancy<int>
_TEXT	ENDS
; Function compile flags: /Odtp /RTCsu /ZI
; File c:\program files (x86)\microsoft visual studio\2017\professional\vc\tools\msvc\14.16.27023\include\xutility
;	COMDAT ??$_Move_unchecked@PAHPAH@std@@YAPAHPAH00@Z
_TEXT	SEGMENT
$T1 = -209						; size = 1
$T2 = -197						; size = 1
__First$ = 8						; size = 4
__Last$ = 12						; size = 4
__Dest$ = 16						; size = 4
??$_Move_unchecked@PAHPAH@std@@YAPAHPAH00@Z PROC	; std::_Move_unchecked<int *,int *>, COMDAT

; 2734 : 	{	// move [_First, _Last) to [_Dest, ...), choose optimization

	push	ebp
	mov	ebp, esp
	sub	esp, 216				; 000000d8H
	push	ebx
	push	esi
	push	edi
	lea	edi, DWORD PTR [ebp-216]
	mov	ecx, 54					; 00000036H
	mov	eax, -858993460				; ccccccccH
	rep stosd
	mov	ecx, OFFSET __DB64A6E0_xutility
	call	@__CheckForDebuggerJustMyCode@4

; 2735 : 		// note: _Move_unchecked is called directly from elsewhere in the STL
; 2736 : 	return (_Move_unchecked1(_First, _Last,

	lea	eax, DWORD PTR __Dest$[ebp]
	push	eax
	lea	ecx, DWORD PTR __First$[ebp]
	push	ecx
	lea	edx, DWORD PTR $T2[ebp]
	push	edx
	call	??$_Ptr_move_cat@HH@std@@YA?AU_Really_trivial_ptr_iterator_tag@0@ABQAH0@Z ; std::_Ptr_move_cat<int,int>
	add	esp, 12					; 0000000cH
	movzx	eax, BYTE PTR $T1[ebp]
	push	eax
	mov	ecx, DWORD PTR __Dest$[ebp]
	push	ecx
	mov	edx, DWORD PTR __Last$[ebp]
	push	edx
	mov	eax, DWORD PTR __First$[ebp]
	push	eax
	call	??$_Move_unchecked1@PAHPAH@std@@YAPAHPAH00U_Trivially_copyable_ptr_iterator_tag@0@@Z ; std::_Move_unchecked1<int *,int *>
	add	esp, 16					; 00000010H

; 2737 : 		_Dest, _Ptr_move_cat(_First, _Dest)));
; 2738 : 	}

	pop	edi
	pop	esi
	pop	ebx
	add	esp, 216				; 000000d8H
	cmp	ebp, esp
	call	__RTC_CheckEsp
	mov	esp, ebp
	pop	ebp
	ret	0
??$_Move_unchecked@PAHPAH@std@@YAPAHPAH00@Z ENDP	; std::_Move_unchecked<int *,int *>
_TEXT	ENDS
; Function compile flags: /Odtp /RTCsu /ZI
; File c:\program files (x86)\microsoft visual studio\2017\professional\vc\tools\msvc\14.16.27023\include\xstddef
;	COMDAT ??$addressof@V?$_Vector_val@U?$_Simple_types@H@std@@@std@@@std@@YAPAV?$_Vector_val@U?$_Simple_types@H@std@@@0@AAV10@@Z
_TEXT	SEGMENT
__$EHRec$ = -12						; size = 12
__Val$ = 8						; size = 4
??$addressof@V?$_Vector_val@U?$_Simple_types@H@std@@@std@@@std@@YAPAV?$_Vector_val@U?$_Simple_types@H@std@@@0@AAV10@@Z PROC ; std::addressof<std::_Vector_val<std::_Simple_types<int> > >, COMDAT

; 329  : 	{	// return address of _Val

	push	ebp
	mov	ebp, esp
	push	-1
	push	__ehhandler$??$addressof@V?$_Vector_val@U?$_Simple_types@H@std@@@std@@@std@@YAPAV?$_Vector_val@U?$_Simple_types@H@std@@@0@AAV10@@Z
	mov	eax, DWORD PTR fs:0
	push	eax
	sub	esp, 192				; 000000c0H
	push	ebx
	push	esi
	push	edi
	lea	edi, DWORD PTR [ebp-204]
	mov	ecx, 48					; 00000030H
	mov	eax, -858993460				; ccccccccH
	rep stosd
	mov	eax, DWORD PTR ___security_cookie
	xor	eax, ebp
	push	eax
	lea	eax, DWORD PTR __$EHRec$[ebp]
	mov	DWORD PTR fs:0, eax
	mov	ecx, OFFSET __AA43626F_xstddef
	call	@__CheckForDebuggerJustMyCode@4

; 330  : 	return (__builtin_addressof(_Val));

	mov	eax, DWORD PTR __Val$[ebp]

; 331  : 	}

	mov	ecx, DWORD PTR __$EHRec$[ebp]
	mov	DWORD PTR fs:0, ecx
	pop	ecx
	pop	edi
	pop	esi
	pop	ebx
	add	esp, 204				; 000000ccH
	cmp	ebp, esp
	call	__RTC_CheckEsp
	mov	esp, ebp
	pop	ebp
	ret	0
_TEXT	ENDS
;	COMDAT text$x
text$x	SEGMENT
__ehhandler$??$addressof@V?$_Vector_val@U?$_Simple_types@H@std@@@std@@@std@@YAPAV?$_Vector_val@U?$_Simple_types@H@std@@@0@AAV10@@Z:
	mov	edx, DWORD PTR [esp+8]
	lea	eax, DWORD PTR [edx+12]
	mov	ecx, DWORD PTR [edx-208]
	xor	ecx, eax
	call	@__security_check_cookie@4
	mov	eax, OFFSET __ehfuncinfo$??$addressof@V?$_Vector_val@U?$_Simple_types@H@std@@@std@@@std@@YAPAV?$_Vector_val@U?$_Simple_types@H@std@@@0@AAV10@@Z
	jmp	___CxxFrameHandler3
text$x	ENDS
??$addressof@V?$_Vector_val@U?$_Simple_types@H@std@@@std@@@std@@YAPAV?$_Vector_val@U?$_Simple_types@H@std@@@0@AAV10@@Z ENDP ; std::addressof<std::_Vector_val<std::_Simple_types<int> > >
; Function compile flags: /Odtp /RTCsu /ZI
; File c:\program files (x86)\microsoft visual studio\2017\professional\vc\tools\msvc\14.16.27023\include\numeric
;	COMDAT ??$accumulate@V?$_Vector_iterator@V?$_Vector_val@U?$_Simple_types@H@std@@@std@@@std@@_K@std@@YA_KV?$_Vector_iterator@V?$_Vector_val@U?$_Simple_types@H@std@@@std@@@0@0_K@Z
_TEXT	SEGMENT
tv66 = -264						; size = 8
$T2 = -252						; size = 4
$T3 = -240						; size = 4
$T4 = -225						; size = 1
$T5 = -216						; size = 8
__$EHRec$ = -12						; size = 12
__First$ = 8						; size = 12
__Last$ = 20						; size = 12
__Val$ = 32						; size = 8
??$accumulate@V?$_Vector_iterator@V?$_Vector_val@U?$_Simple_types@H@std@@@std@@@std@@_K@std@@YA_KV?$_Vector_iterator@V?$_Vector_val@U?$_Simple_types@H@std@@@std@@@0@0_K@Z PROC ; std::accumulate<std::_Vector_iterator<std::_Vector_val<std::_Simple_types<int> > >,unsigned __int64>, COMDAT

; 35   : 	{	// return noncommutative and nonassociative reduction of _Val and all in [_First, _Last)

	push	ebp
	mov	ebp, esp
	push	-1
	push	__ehhandler$??$accumulate@V?$_Vector_iterator@V?$_Vector_val@U?$_Simple_types@H@std@@@std@@@std@@_K@std@@YA_KV?$_Vector_iterator@V?$_Vector_val@U?$_Simple_types@H@std@@@std@@@0@0_K@Z
	mov	eax, DWORD PTR fs:0
	push	eax
	sub	esp, 252				; 000000fcH
	push	ebx
	push	esi
	push	edi
	lea	edi, DWORD PTR [ebp-264]
	mov	ecx, 63					; 0000003fH
	mov	eax, -858993460				; ccccccccH
	rep stosd
	mov	eax, DWORD PTR ___security_cookie
	xor	eax, ebp
	push	eax
	lea	eax, DWORD PTR __$EHRec$[ebp]
	mov	DWORD PTR fs:0, eax
	mov	DWORD PTR __$EHRec$[ebp+8], 1
	mov	ecx, OFFSET __692CDE51_numeric
	call	@__CheckForDebuggerJustMyCode@4

; 36   : 	return (_STD accumulate(_First, _Last, _Val, plus<>()));

	movzx	eax, BYTE PTR $T4[ebp]
	push	eax
	mov	ecx, DWORD PTR __Val$[ebp+4]
	push	ecx
	mov	edx, DWORD PTR __Val$[ebp]
	push	edx
	sub	esp, 12					; 0000000cH
	mov	ecx, esp
	mov	DWORD PTR $T3[ebp], esp
	lea	eax, DWORD PTR __Last$[ebp]
	push	eax
	call	??0?$_Vector_iterator@V?$_Vector_val@U?$_Simple_types@H@std@@@std@@@std@@QAE@ABV01@@Z
	sub	esp, 12					; 0000000cH
	mov	ecx, esp
	mov	DWORD PTR $T2[ebp], esp
	lea	edx, DWORD PTR __First$[ebp]
	push	edx
	call	??0?$_Vector_iterator@V?$_Vector_val@U?$_Simple_types@H@std@@@std@@@std@@QAE@ABV01@@Z
	call	??$accumulate@V?$_Vector_iterator@V?$_Vector_val@U?$_Simple_types@H@std@@@std@@@std@@_KU?$plus@X@2@@std@@YA_KV?$_Vector_iterator@V?$_Vector_val@U?$_Simple_types@H@std@@@std@@@0@0_KU?$plus@X@0@@Z ; std::accumulate<std::_Vector_iterator<std::_Vector_val<std::_Simple_types<int> > >,unsigned __int64,std::plus<void> >
	add	esp, 36					; 00000024H
	mov	DWORD PTR tv66[ebp], eax
	mov	DWORD PTR tv66[ebp+4], edx
	mov	eax, DWORD PTR tv66[ebp]
	mov	DWORD PTR $T5[ebp], eax
	mov	ecx, DWORD PTR tv66[ebp+4]
	mov	DWORD PTR $T5[ebp+4], ecx
	mov	BYTE PTR __$EHRec$[ebp+8], 0
	lea	ecx, DWORD PTR __First$[ebp]
	call	??1?$_Vector_iterator@V?$_Vector_val@U?$_Simple_types@H@std@@@std@@@std@@QAE@XZ
	mov	DWORD PTR __$EHRec$[ebp+8], -1
	lea	ecx, DWORD PTR __Last$[ebp]
	call	??1?$_Vector_iterator@V?$_Vector_val@U?$_Simple_types@H@std@@@std@@@std@@QAE@XZ
	mov	eax, DWORD PTR $T5[ebp]
	mov	edx, DWORD PTR $T5[ebp+4]

; 37   : 	}

	mov	ecx, DWORD PTR __$EHRec$[ebp]
	mov	DWORD PTR fs:0, ecx
	pop	ecx
	pop	edi
	pop	esi
	pop	ebx
	add	esp, 264				; 00000108H
	cmp	ebp, esp
	call	__RTC_CheckEsp
	mov	esp, ebp
	pop	ebp
	ret	0
_TEXT	ENDS
;	COMDAT text$x
text$x	SEGMENT
__unwindfunclet$??$accumulate@V?$_Vector_iterator@V?$_Vector_val@U?$_Simple_types@H@std@@@std@@@std@@_K@std@@YA_KV?$_Vector_iterator@V?$_Vector_val@U?$_Simple_types@H@std@@@std@@@0@0_K@Z$0:
	lea	ecx, DWORD PTR __Last$[ebp]
	jmp	??1?$_Vector_iterator@V?$_Vector_val@U?$_Simple_types@H@std@@@std@@@std@@QAE@XZ
__unwindfunclet$??$accumulate@V?$_Vector_iterator@V?$_Vector_val@U?$_Simple_types@H@std@@@std@@@std@@_K@std@@YA_KV?$_Vector_iterator@V?$_Vector_val@U?$_Simple_types@H@std@@@std@@@0@0_K@Z$1:
	lea	ecx, DWORD PTR __First$[ebp]
	jmp	??1?$_Vector_iterator@V?$_Vector_val@U?$_Simple_types@H@std@@@std@@@std@@QAE@XZ
__ehhandler$??$accumulate@V?$_Vector_iterator@V?$_Vector_val@U?$_Simple_types@H@std@@@std@@@std@@_K@std@@YA_KV?$_Vector_iterator@V?$_Vector_val@U?$_Simple_types@H@std@@@std@@@0@0_K@Z:
	mov	edx, DWORD PTR [esp+8]
	lea	eax, DWORD PTR [edx+12]
	mov	ecx, DWORD PTR [edx-268]
	xor	ecx, eax
	call	@__security_check_cookie@4
	mov	eax, OFFSET __ehfuncinfo$??$accumulate@V?$_Vector_iterator@V?$_Vector_val@U?$_Simple_types@H@std@@@std@@@std@@_K@std@@YA_KV?$_Vector_iterator@V?$_Vector_val@U?$_Simple_types@H@std@@@std@@@0@0_K@Z
	jmp	___CxxFrameHandler3
text$x	ENDS
??$accumulate@V?$_Vector_iterator@V?$_Vector_val@U?$_Simple_types@H@std@@@std@@@std@@_K@std@@YA_KV?$_Vector_iterator@V?$_Vector_val@U?$_Simple_types@H@std@@@std@@@0@0_K@Z ENDP ; std::accumulate<std::_Vector_iterator<std::_Vector_val<std::_Simple_types<int> > >,unsigned __int64>
; Function compile flags: /Odtp /RTCsu /ZI
; File c:\program files (x86)\microsoft visual studio\2017\professional\vc\tools\msvc\14.16.27023\include\xutility
;	COMDAT ??$find@V?$_Vector_iterator@V?$_Vector_val@U?$_Simple_types@H@std@@@std@@@std@@H@std@@YA?AV?$_Vector_iterator@V?$_Vector_val@U?$_Simple_types@H@std@@@std@@@0@V10@V10@ABH@Z
_TEXT	SEGMENT
$T2 = -224						; size = 4
$T3 = -212						; size = 4
__$EHRec$ = -12						; size = 12
___$ReturnUdt$ = 8					; size = 4
__First$ = 12						; size = 12
__Last$ = 24						; size = 12
__Val$ = 36						; size = 4
??$find@V?$_Vector_iterator@V?$_Vector_val@U?$_Simple_types@H@std@@@std@@@std@@H@std@@YA?AV?$_Vector_iterator@V?$_Vector_val@U?$_Simple_types@H@std@@@std@@@0@V10@V10@ABH@Z PROC ; std::find<std::_Vector_iterator<std::_Vector_val<std::_Simple_types<int> > >,int>, COMDAT

; 3539 : 	{	// find first matching _Val

	push	ebp
	mov	ebp, esp
	push	-1
	push	__ehhandler$??$find@V?$_Vector_iterator@V?$_Vector_val@U?$_Simple_types@H@std@@@std@@@std@@H@std@@YA?AV?$_Vector_iterator@V?$_Vector_val@U?$_Simple_types@H@std@@@std@@@0@V10@V10@ABH@Z
	mov	eax, DWORD PTR fs:0
	push	eax
	sub	esp, 216				; 000000d8H
	push	ebx
	push	esi
	push	edi
	lea	edi, DWORD PTR [ebp-228]
	mov	ecx, 54					; 00000036H
	mov	eax, -858993460				; ccccccccH
	rep stosd
	mov	eax, DWORD PTR ___security_cookie
	xor	eax, ebp
	push	eax
	lea	eax, DWORD PTR __$EHRec$[ebp]
	mov	DWORD PTR fs:0, eax
	mov	DWORD PTR $T2[ebp], 0
	mov	DWORD PTR __$EHRec$[ebp+8], 1
	mov	ecx, OFFSET __DB64A6E0_xutility
	call	@__CheckForDebuggerJustMyCode@4

; 3540 : 	_Adl_verify_range(_First, _Last);

	lea	eax, DWORD PTR __Last$[ebp]
	push	eax
	lea	ecx, DWORD PTR __First$[ebp]
	push	ecx
	call	??$_Adl_verify_range@V?$_Vector_iterator@V?$_Vector_val@U?$_Simple_types@H@std@@@std@@@std@@V12@@std@@YAXABV?$_Vector_iterator@V?$_Vector_val@U?$_Simple_types@H@std@@@std@@@0@0@Z ; std::_Adl_verify_range<std::_Vector_iterator<std::_Vector_val<std::_Simple_types<int> > >,std::_Vector_iterator<std::_Vector_val<std::_Simple_types<int> > > >
	add	esp, 8

; 3541 : 	_Seek_wrapped(_First,

	mov	eax, DWORD PTR __Val$[ebp]
	push	eax
	lea	ecx, DWORD PTR __Last$[ebp]
	push	ecx
	call	??$_Get_unwrapped@V?$_Vector_iterator@V?$_Vector_val@U?$_Simple_types@H@std@@@std@@@std@@$0A@@std@@YA@ABV?$_Vector_iterator@V?$_Vector_val@U?$_Simple_types@H@std@@@std@@@0@@Z ; std::_Get_unwrapped<std::_Vector_iterator<std::_Vector_val<std::_Simple_types<int> > >,0>
	add	esp, 4
	push	eax
	lea	edx, DWORD PTR __First$[ebp]
	push	edx
	call	??$_Get_unwrapped@V?$_Vector_iterator@V?$_Vector_val@U?$_Simple_types@H@std@@@std@@@std@@$0A@@std@@YA@ABV?$_Vector_iterator@V?$_Vector_val@U?$_Simple_types@H@std@@@std@@@0@@Z ; std::_Get_unwrapped<std::_Vector_iterator<std::_Vector_val<std::_Simple_types<int> > >,0>
	add	esp, 4
	push	eax
	call	??$_Find_unchecked@PAHH@std@@YAPAHQAH0ABH@Z ; std::_Find_unchecked<int *,int>
	add	esp, 12					; 0000000cH
	mov	DWORD PTR $T3[ebp], eax
	lea	eax, DWORD PTR $T3[ebp]
	push	eax
	lea	ecx, DWORD PTR __First$[ebp]
	push	ecx
	call	??$_Seek_wrapped@V?$_Vector_iterator@V?$_Vector_val@U?$_Simple_types@H@std@@@std@@@std@@PAH$0A@@std@@YAXAAV?$_Vector_iterator@V?$_Vector_val@U?$_Simple_types@H@std@@@std@@@0@ABQAH@Z ; std::_Seek_wrapped<std::_Vector_iterator<std::_Vector_val<std::_Simple_types<int> > >,int *,0>
	add	esp, 8

; 3542 : 		_Find_unchecked(_Get_unwrapped(_First), _Get_unwrapped(_Last), _Val));
; 3543 : 	return (_First);

	lea	eax, DWORD PTR __First$[ebp]
	push	eax
	mov	ecx, DWORD PTR ___$ReturnUdt$[ebp]
	call	??0?$_Vector_iterator@V?$_Vector_val@U?$_Simple_types@H@std@@@std@@@std@@QAE@$$QAV01@@Z
	mov	ecx, DWORD PTR $T2[ebp]
	or	ecx, 1
	mov	DWORD PTR $T2[ebp], ecx
	mov	BYTE PTR __$EHRec$[ebp+8], 0
	lea	ecx, DWORD PTR __First$[ebp]
	call	??1?$_Vector_iterator@V?$_Vector_val@U?$_Simple_types@H@std@@@std@@@std@@QAE@XZ
	mov	DWORD PTR __$EHRec$[ebp+8], -1
	lea	ecx, DWORD PTR __Last$[ebp]
	call	??1?$_Vector_iterator@V?$_Vector_val@U?$_Simple_types@H@std@@@std@@@std@@QAE@XZ
	mov	eax, DWORD PTR ___$ReturnUdt$[ebp]

; 3544 : 	}

	mov	ecx, DWORD PTR __$EHRec$[ebp]
	mov	DWORD PTR fs:0, ecx
	pop	ecx
	pop	edi
	pop	esi
	pop	ebx
	add	esp, 228				; 000000e4H
	cmp	ebp, esp
	call	__RTC_CheckEsp
	mov	esp, ebp
	pop	ebp
	ret	0
_TEXT	ENDS
;	COMDAT text$x
text$x	SEGMENT
__unwindfunclet$??$find@V?$_Vector_iterator@V?$_Vector_val@U?$_Simple_types@H@std@@@std@@@std@@H@std@@YA?AV?$_Vector_iterator@V?$_Vector_val@U?$_Simple_types@H@std@@@std@@@0@V10@V10@ABH@Z$0:
	lea	ecx, DWORD PTR __Last$[ebp]
	jmp	??1?$_Vector_iterator@V?$_Vector_val@U?$_Simple_types@H@std@@@std@@@std@@QAE@XZ
__unwindfunclet$??$find@V?$_Vector_iterator@V?$_Vector_val@U?$_Simple_types@H@std@@@std@@@std@@H@std@@YA?AV?$_Vector_iterator@V?$_Vector_val@U?$_Simple_types@H@std@@@std@@@0@V10@V10@ABH@Z$1:
	lea	ecx, DWORD PTR __First$[ebp]
	jmp	??1?$_Vector_iterator@V?$_Vector_val@U?$_Simple_types@H@std@@@std@@@std@@QAE@XZ
__ehhandler$??$find@V?$_Vector_iterator@V?$_Vector_val@U?$_Simple_types@H@std@@@std@@@std@@H@std@@YA?AV?$_Vector_iterator@V?$_Vector_val@U?$_Simple_types@H@std@@@std@@@0@V10@V10@ABH@Z:
	mov	edx, DWORD PTR [esp+8]
	lea	eax, DWORD PTR [edx+12]
	mov	ecx, DWORD PTR [edx-232]
	xor	ecx, eax
	call	@__security_check_cookie@4
	mov	eax, OFFSET __ehfuncinfo$??$find@V?$_Vector_iterator@V?$_Vector_val@U?$_Simple_types@H@std@@@std@@@std@@H@std@@YA?AV?$_Vector_iterator@V?$_Vector_val@U?$_Simple_types@H@std@@@std@@@0@V10@V10@ABH@Z
	jmp	___CxxFrameHandler3
text$x	ENDS
??$find@V?$_Vector_iterator@V?$_Vector_val@U?$_Simple_types@H@std@@@std@@@std@@H@std@@YA?AV?$_Vector_iterator@V?$_Vector_val@U?$_Simple_types@H@std@@@std@@@0@V10@V10@ABH@Z ENDP ; std::find<std::_Vector_iterator<std::_Vector_val<std::_Simple_types<int> > >,int>
; Function compile flags: /Odtp /RTCsu /ZI
; File c:\program files (x86)\microsoft visual studio\2017\professional\vc\tools\msvc\14.16.27023\include\algorithm
;	COMDAT ??$max_element@V?$_Vector_iterator@V?$_Vector_val@U?$_Simple_types@H@std@@@std@@@std@@@std@@YA?AV?$_Vector_iterator@V?$_Vector_val@U?$_Simple_types@H@std@@@std@@@0@V10@0@Z
_TEXT	SEGMENT
tv66 = -256						; size = 4
$T2 = -248						; size = 4
$T3 = -236						; size = 4
$T4 = -224						; size = 4
$T5 = -209						; size = 1
__$EHRec$ = -12						; size = 12
___$ReturnUdt$ = 8					; size = 4
__First$ = 12						; size = 12
__Last$ = 24						; size = 12
??$max_element@V?$_Vector_iterator@V?$_Vector_val@U?$_Simple_types@H@std@@@std@@@std@@@std@@YA?AV?$_Vector_iterator@V?$_Vector_val@U?$_Simple_types@H@std@@@std@@@0@V10@0@Z PROC ; std::max_element<std::_Vector_iterator<std::_Vector_val<std::_Simple_types<int> > > >, COMDAT

; 5188 : 	{	// find largest element, using operator<

	push	ebp
	mov	ebp, esp
	push	-1
	push	__ehhandler$??$max_element@V?$_Vector_iterator@V?$_Vector_val@U?$_Simple_types@H@std@@@std@@@std@@@std@@YA?AV?$_Vector_iterator@V?$_Vector_val@U?$_Simple_types@H@std@@@std@@@0@V10@0@Z
	mov	eax, DWORD PTR fs:0
	push	eax
	sub	esp, 244				; 000000f4H
	push	ebx
	push	esi
	push	edi
	lea	edi, DWORD PTR [ebp-256]
	mov	ecx, 61					; 0000003dH
	mov	eax, -858993460				; ccccccccH
	rep stosd
	mov	eax, DWORD PTR ___security_cookie
	xor	eax, ebp
	push	eax
	lea	eax, DWORD PTR __$EHRec$[ebp]
	mov	DWORD PTR fs:0, eax
	mov	DWORD PTR $T2[ebp], 0
	mov	DWORD PTR __$EHRec$[ebp+8], 1
	mov	ecx, OFFSET __FC232AAC_algorithm
	call	@__CheckForDebuggerJustMyCode@4

; 5189 : 	return (_STD max_element(_First, _Last, less<>()));

	movzx	eax, BYTE PTR $T5[ebp]
	push	eax
	sub	esp, 12					; 0000000cH
	mov	ecx, esp
	mov	DWORD PTR $T4[ebp], esp
	lea	edx, DWORD PTR __Last$[ebp]
	push	edx
	call	??0?$_Vector_iterator@V?$_Vector_val@U?$_Simple_types@H@std@@@std@@@std@@QAE@ABV01@@Z
	sub	esp, 12					; 0000000cH
	mov	ecx, esp
	mov	DWORD PTR $T3[ebp], esp
	lea	eax, DWORD PTR __First$[ebp]
	push	eax
	call	??0?$_Vector_iterator@V?$_Vector_val@U?$_Simple_types@H@std@@@std@@@std@@QAE@ABV01@@Z
	mov	ecx, DWORD PTR ___$ReturnUdt$[ebp]
	push	ecx
	call	??$max_element@V?$_Vector_iterator@V?$_Vector_val@U?$_Simple_types@H@std@@@std@@@std@@U?$less@X@2@@std@@YA?AV?$_Vector_iterator@V?$_Vector_val@U?$_Simple_types@H@std@@@std@@@0@V10@0U?$less@X@0@@Z ; std::max_element<std::_Vector_iterator<std::_Vector_val<std::_Simple_types<int> > >,std::less<void> >
	add	esp, 32					; 00000020H
	mov	DWORD PTR tv66[ebp], eax
	mov	edx, DWORD PTR $T2[ebp]
	or	edx, 1
	mov	DWORD PTR $T2[ebp], edx
	mov	BYTE PTR __$EHRec$[ebp+8], 0
	lea	ecx, DWORD PTR __First$[ebp]
	call	??1?$_Vector_iterator@V?$_Vector_val@U?$_Simple_types@H@std@@@std@@@std@@QAE@XZ
	mov	DWORD PTR __$EHRec$[ebp+8], -1
	lea	ecx, DWORD PTR __Last$[ebp]
	call	??1?$_Vector_iterator@V?$_Vector_val@U?$_Simple_types@H@std@@@std@@@std@@QAE@XZ
	mov	eax, DWORD PTR ___$ReturnUdt$[ebp]

; 5190 : 	}

	mov	ecx, DWORD PTR __$EHRec$[ebp]
	mov	DWORD PTR fs:0, ecx
	pop	ecx
	pop	edi
	pop	esi
	pop	ebx
	add	esp, 256				; 00000100H
	cmp	ebp, esp
	call	__RTC_CheckEsp
	mov	esp, ebp
	pop	ebp
	ret	0
_TEXT	ENDS
;	COMDAT text$x
text$x	SEGMENT
__unwindfunclet$??$max_element@V?$_Vector_iterator@V?$_Vector_val@U?$_Simple_types@H@std@@@std@@@std@@@std@@YA?AV?$_Vector_iterator@V?$_Vector_val@U?$_Simple_types@H@std@@@std@@@0@V10@0@Z$0:
	lea	ecx, DWORD PTR __Last$[ebp]
	jmp	??1?$_Vector_iterator@V?$_Vector_val@U?$_Simple_types@H@std@@@std@@@std@@QAE@XZ
__unwindfunclet$??$max_element@V?$_Vector_iterator@V?$_Vector_val@U?$_Simple_types@H@std@@@std@@@std@@@std@@YA?AV?$_Vector_iterator@V?$_Vector_val@U?$_Simple_types@H@std@@@std@@@0@V10@0@Z$1:
	lea	ecx, DWORD PTR __First$[ebp]
	jmp	??1?$_Vector_iterator@V?$_Vector_val@U?$_Simple_types@H@std@@@std@@@std@@QAE@XZ
__ehhandler$??$max_element@V?$_Vector_iterator@V?$_Vector_val@U?$_Simple_types@H@std@@@std@@@std@@@std@@YA?AV?$_Vector_iterator@V?$_Vector_val@U?$_Simple_types@H@std@@@std@@@0@V10@0@Z:
	mov	edx, DWORD PTR [esp+8]
	lea	eax, DWORD PTR [edx+12]
	mov	ecx, DWORD PTR [edx-260]
	xor	ecx, eax
	call	@__security_check_cookie@4
	mov	eax, OFFSET __ehfuncinfo$??$max_element@V?$_Vector_iterator@V?$_Vector_val@U?$_Simple_types@H@std@@@std@@@std@@@std@@YA?AV?$_Vector_iterator@V?$_Vector_val@U?$_Simple_types@H@std@@@std@@@0@V10@0@Z
	jmp	___CxxFrameHandler3
text$x	ENDS
??$max_element@V?$_Vector_iterator@V?$_Vector_val@U?$_Simple_types@H@std@@@std@@@std@@@std@@YA?AV?$_Vector_iterator@V?$_Vector_val@U?$_Simple_types@H@std@@@std@@@0@V10@0@Z ENDP ; std::max_element<std::_Vector_iterator<std::_Vector_val<std::_Simple_types<int> > > >
; Function compile flags: /Odtp /RTCsu /ZI
; File c:\program files (x86)\microsoft visual studio\2017\professional\vc\tools\msvc\14.16.27023\include\vector
;	COMDAT ??$?0V?$_Vector_iterator@V?$_Vector_val@U?$_Simple_types@H@std@@@std@@@std@@X@?$vector@HV?$allocator@H@std@@@std@@QAE@V?$_Vector_iterator@V?$_Vector_val@U?$_Simple_types@H@std@@@std@@@1@0ABV?$allocator@H@1@@Z
_TEXT	SEGMENT
$T2 = -233						; size = 1
_this$ = -20						; size = 4
__$EHRec$ = -12						; size = 12
__First$ = 8						; size = 12
__Last$ = 20						; size = 12
__Al$ = 32						; size = 4
??$?0V?$_Vector_iterator@V?$_Vector_val@U?$_Simple_types@H@std@@@std@@@std@@X@?$vector@HV?$allocator@H@std@@@std@@QAE@V?$_Vector_iterator@V?$_Vector_val@U?$_Simple_types@H@std@@@std@@@1@0ABV?$allocator@H@1@@Z PROC ; std::vector<int,std::allocator<int> >::vector<int,std::allocator<int> ><std::_Vector_iterator<std::_Vector_val<std::_Simple_types<int> > >,void>, COMDAT
; _this$ = ecx

; 721  : 		{	// construct from [_First, _Last) with optional allocator

	push	ebp
	mov	ebp, esp
	push	-1
	push	__ehhandler$??$?0V?$_Vector_iterator@V?$_Vector_val@U?$_Simple_types@H@std@@@std@@@std@@X@?$vector@HV?$allocator@H@std@@@std@@QAE@V?$_Vector_iterator@V?$_Vector_val@U?$_Simple_types@H@std@@@std@@@1@0ABV?$allocator@H@1@@Z
	mov	eax, DWORD PTR fs:0
	push	eax
	sub	esp, 228				; 000000e4H
	push	ebx
	push	esi
	push	edi
	push	ecx
	lea	edi, DWORD PTR [ebp-240]
	mov	ecx, 57					; 00000039H
	mov	eax, -858993460				; ccccccccH
	rep stosd
	pop	ecx
	mov	eax, DWORD PTR ___security_cookie
	xor	eax, ebp
	push	eax
	lea	eax, DWORD PTR __$EHRec$[ebp]
	mov	DWORD PTR fs:0, eax
	mov	DWORD PTR _this$[ebp], ecx
	mov	DWORD PTR __$EHRec$[ebp+8], 1
	mov	ecx, OFFSET __2D4BA300_vector
	call	@__CheckForDebuggerJustMyCode@4

; 720  : 		: _Mybase(_Al)

	mov	eax, DWORD PTR __Al$[ebp]
	push	eax
	mov	ecx, DWORD PTR _this$[ebp]
	call	??$?0ABV?$allocator@H@std@@X@?$_Vector_alloc@U?$_Vec_base_types@HV?$allocator@H@std@@@std@@@std@@QAE@ABV?$allocator@H@1@@Z ; std::_Vector_alloc<std::_Vec_base_types<int,std::allocator<int> > >::_Vector_alloc<std::_Vec_base_types<int,std::allocator<int> > ><std::allocator<int> const &,void>
	mov	BYTE PTR __$EHRec$[ebp+8], 2

; 722  : 		_Adl_verify_range(_First, _Last);

	lea	eax, DWORD PTR __Last$[ebp]
	push	eax
	lea	ecx, DWORD PTR __First$[ebp]
	push	ecx
	call	??$_Adl_verify_range@V?$_Vector_iterator@V?$_Vector_val@U?$_Simple_types@H@std@@@std@@@std@@V12@@std@@YAXABV?$_Vector_iterator@V?$_Vector_val@U?$_Simple_types@H@std@@@std@@@0@0@Z ; std::_Adl_verify_range<std::_Vector_iterator<std::_Vector_val<std::_Simple_types<int> > >,std::_Vector_iterator<std::_Vector_val<std::_Simple_types<int> > > >
	add	esp, 8

; 723  : 		_Range_construct_or_tidy(_Get_unwrapped(_First), _Get_unwrapped(_Last), _Iter_cat_t<_Iter>{});

	movzx	eax, BYTE PTR $T2[ebp]
	push	eax
	lea	ecx, DWORD PTR __Last$[ebp]
	push	ecx
	call	??$_Get_unwrapped@V?$_Vector_iterator@V?$_Vector_val@U?$_Simple_types@H@std@@@std@@@std@@$0A@@std@@YA@ABV?$_Vector_iterator@V?$_Vector_val@U?$_Simple_types@H@std@@@std@@@0@@Z ; std::_Get_unwrapped<std::_Vector_iterator<std::_Vector_val<std::_Simple_types<int> > >,0>
	add	esp, 4
	push	eax
	lea	edx, DWORD PTR __First$[ebp]
	push	edx
	call	??$_Get_unwrapped@V?$_Vector_iterator@V?$_Vector_val@U?$_Simple_types@H@std@@@std@@@std@@$0A@@std@@YA@ABV?$_Vector_iterator@V?$_Vector_val@U?$_Simple_types@H@std@@@std@@@0@@Z ; std::_Get_unwrapped<std::_Vector_iterator<std::_Vector_val<std::_Simple_types<int> > >,0>
	add	esp, 4
	push	eax
	mov	ecx, DWORD PTR _this$[ebp]
	call	??$_Range_construct_or_tidy@PAH@?$vector@HV?$allocator@H@std@@@std@@AAEXPAH0Uforward_iterator_tag@1@@Z ; std::vector<int,std::allocator<int> >::_Range_construct_or_tidy<int *>

; 724  : 		}

	mov	BYTE PTR __$EHRec$[ebp+8], 0
	lea	ecx, DWORD PTR __First$[ebp]
	call	??1?$_Vector_iterator@V?$_Vector_val@U?$_Simple_types@H@std@@@std@@@std@@QAE@XZ
	mov	DWORD PTR __$EHRec$[ebp+8], -1
	lea	ecx, DWORD PTR __Last$[ebp]
	call	??1?$_Vector_iterator@V?$_Vector_val@U?$_Simple_types@H@std@@@std@@@std@@QAE@XZ
	mov	eax, DWORD PTR _this$[ebp]
	mov	ecx, DWORD PTR __$EHRec$[ebp]
	mov	DWORD PTR fs:0, ecx
	pop	ecx
	pop	edi
	pop	esi
	pop	ebx
	add	esp, 240				; 000000f0H
	cmp	ebp, esp
	call	__RTC_CheckEsp
	mov	esp, ebp
	pop	ebp
	ret	28					; 0000001cH
_TEXT	ENDS
;	COMDAT text$x
text$x	SEGMENT
__unwindfunclet$??$?0V?$_Vector_iterator@V?$_Vector_val@U?$_Simple_types@H@std@@@std@@@std@@X@?$vector@HV?$allocator@H@std@@@std@@QAE@V?$_Vector_iterator@V?$_Vector_val@U?$_Simple_types@H@std@@@std@@@1@0ABV?$allocator@H@1@@Z$0:
	lea	ecx, DWORD PTR __Last$[ebp]
	jmp	??1?$_Vector_iterator@V?$_Vector_val@U?$_Simple_types@H@std@@@std@@@std@@QAE@XZ
__unwindfunclet$??$?0V?$_Vector_iterator@V?$_Vector_val@U?$_Simple_types@H@std@@@std@@@std@@X@?$vector@HV?$allocator@H@std@@@std@@QAE@V?$_Vector_iterator@V?$_Vector_val@U?$_Simple_types@H@std@@@std@@@1@0ABV?$allocator@H@1@@Z$1:
	lea	ecx, DWORD PTR __First$[ebp]
	jmp	??1?$_Vector_iterator@V?$_Vector_val@U?$_Simple_types@H@std@@@std@@@std@@QAE@XZ
__unwindfunclet$??$?0V?$_Vector_iterator@V?$_Vector_val@U?$_Simple_types@H@std@@@std@@@std@@X@?$vector@HV?$allocator@H@std@@@std@@QAE@V?$_Vector_iterator@V?$_Vector_val@U?$_Simple_types@H@std@@@std@@@1@0ABV?$allocator@H@1@@Z$2:
	mov	ecx, DWORD PTR _this$[ebp]
	jmp	??1?$_Vector_alloc@U?$_Vec_base_types@HV?$allocator@H@std@@@std@@@std@@QAE@XZ ; std::_Vector_alloc<std::_Vec_base_types<int,std::allocator<int> > >::~_Vector_alloc<std::_Vec_base_types<int,std::allocator<int> > >
__ehhandler$??$?0V?$_Vector_iterator@V?$_Vector_val@U?$_Simple_types@H@std@@@std@@@std@@X@?$vector@HV?$allocator@H@std@@@std@@QAE@V?$_Vector_iterator@V?$_Vector_val@U?$_Simple_types@H@std@@@std@@@1@0ABV?$allocator@H@1@@Z:
	mov	edx, DWORD PTR [esp+8]
	lea	eax, DWORD PTR [edx+12]
	mov	ecx, DWORD PTR [edx-244]
	xor	ecx, eax
	call	@__security_check_cookie@4
	mov	eax, OFFSET __ehfuncinfo$??$?0V?$_Vector_iterator@V?$_Vector_val@U?$_Simple_types@H@std@@@std@@@std@@X@?$vector@HV?$allocator@H@std@@@std@@QAE@V?$_Vector_iterator@V?$_Vector_val@U?$_Simple_types@H@std@@@std@@@1@0ABV?$allocator@H@1@@Z
	jmp	___CxxFrameHandler3
text$x	ENDS
??$?0V?$_Vector_iterator@V?$_Vector_val@U?$_Simple_types@H@std@@@std@@@std@@X@?$vector@HV?$allocator@H@std@@@std@@QAE@V?$_Vector_iterator@V?$_Vector_val@U?$_Simple_types@H@std@@@std@@@1@0ABV?$allocator@H@1@@Z ENDP ; std::vector<int,std::allocator<int> >::vector<int,std::allocator<int> ><std::_Vector_iterator<std::_Vector_val<std::_Simple_types<int> > >,void>
; Function compile flags: /Odtp /RTCsu /ZI
;	COMDAT ??0?$_Vector_iterator@V?$_Vector_val@U?$_Simple_types@H@std@@@std@@@std@@QAE@$$QAV01@@Z
_TEXT	SEGMENT
_this$ = -8						; size = 4
___that$ = 8						; size = 4
??0?$_Vector_iterator@V?$_Vector_val@U?$_Simple_types@H@std@@@std@@@std@@QAE@$$QAV01@@Z PROC ; std::_Vector_iterator<std::_Vector_val<std::_Simple_types<int> > >::_Vector_iterator<std::_Vector_val<std::_Simple_types<int> > >, COMDAT
; _this$ = ecx
	push	ebp
	mov	ebp, esp
	sub	esp, 204				; 000000ccH
	push	ebx
	push	esi
	push	edi
	push	ecx
	lea	edi, DWORD PTR [ebp-204]
	mov	ecx, 51					; 00000033H
	mov	eax, -858993460				; ccccccccH
	rep stosd
	pop	ecx
	mov	DWORD PTR _this$[ebp], ecx
	mov	eax, DWORD PTR ___that$[ebp]
	push	eax
	mov	ecx, DWORD PTR _this$[ebp]
	call	??0?$_Vector_const_iterator@V?$_Vector_val@U?$_Simple_types@H@std@@@std@@@std@@QAE@$$QAV01@@Z
	mov	eax, DWORD PTR _this$[ebp]
	pop	edi
	pop	esi
	pop	ebx
	add	esp, 204				; 000000ccH
	cmp	ebp, esp
	call	__RTC_CheckEsp
	mov	esp, ebp
	pop	ebp
	ret	4
??0?$_Vector_iterator@V?$_Vector_val@U?$_Simple_types@H@std@@@std@@@std@@QAE@$$QAV01@@Z ENDP ; std::_Vector_iterator<std::_Vector_val<std::_Simple_types<int> > >::_Vector_iterator<std::_Vector_val<std::_Simple_types<int> > >
_TEXT	ENDS
; Function compile flags: /Odtp /RTCsu /ZI
;	COMDAT ??0?$_Vector_iterator@V?$_Vector_val@U?$_Simple_types@H@std@@@std@@@std@@QAE@ABV01@@Z
_TEXT	SEGMENT
_this$ = -8						; size = 4
___that$ = 8						; size = 4
??0?$_Vector_iterator@V?$_Vector_val@U?$_Simple_types@H@std@@@std@@@std@@QAE@ABV01@@Z PROC ; std::_Vector_iterator<std::_Vector_val<std::_Simple_types<int> > >::_Vector_iterator<std::_Vector_val<std::_Simple_types<int> > >, COMDAT
; _this$ = ecx
	push	ebp
	mov	ebp, esp
	sub	esp, 204				; 000000ccH
	push	ebx
	push	esi
	push	edi
	push	ecx
	lea	edi, DWORD PTR [ebp-204]
	mov	ecx, 51					; 00000033H
	mov	eax, -858993460				; ccccccccH
	rep stosd
	pop	ecx
	mov	DWORD PTR _this$[ebp], ecx
	mov	eax, DWORD PTR ___that$[ebp]
	push	eax
	mov	ecx, DWORD PTR _this$[ebp]
	call	??0?$_Vector_const_iterator@V?$_Vector_val@U?$_Simple_types@H@std@@@std@@@std@@QAE@ABV01@@Z
	mov	eax, DWORD PTR _this$[ebp]
	pop	edi
	pop	esi
	pop	ebx
	add	esp, 204				; 000000ccH
	cmp	ebp, esp
	call	__RTC_CheckEsp
	mov	esp, ebp
	pop	ebp
	ret	4
??0?$_Vector_iterator@V?$_Vector_val@U?$_Simple_types@H@std@@@std@@@std@@QAE@ABV01@@Z ENDP ; std::_Vector_iterator<std::_Vector_val<std::_Simple_types<int> > >::_Vector_iterator<std::_Vector_val<std::_Simple_types<int> > >
_TEXT	ENDS
; Function compile flags: /Odtp /RTCsu /ZI
;	COMDAT ??1?$_Vector_iterator@V?$_Vector_val@U?$_Simple_types@H@std@@@std@@@std@@QAE@XZ
_TEXT	SEGMENT
_this$ = -8						; size = 4
??1?$_Vector_iterator@V?$_Vector_val@U?$_Simple_types@H@std@@@std@@@std@@QAE@XZ PROC ; std::_Vector_iterator<std::_Vector_val<std::_Simple_types<int> > >::~_Vector_iterator<std::_Vector_val<std::_Simple_types<int> > >, COMDAT
; _this$ = ecx
	push	ebp
	mov	ebp, esp
	sub	esp, 204				; 000000ccH
	push	ebx
	push	esi
	push	edi
	push	ecx
	lea	edi, DWORD PTR [ebp-204]
	mov	ecx, 51					; 00000033H
	mov	eax, -858993460				; ccccccccH
	rep stosd
	pop	ecx
	mov	DWORD PTR _this$[ebp], ecx
	mov	ecx, DWORD PTR _this$[ebp]
	call	??1?$_Vector_const_iterator@V?$_Vector_val@U?$_Simple_types@H@std@@@std@@@std@@QAE@XZ
	pop	edi
	pop	esi
	pop	ebx
	add	esp, 204				; 000000ccH
	cmp	ebp, esp
	call	__RTC_CheckEsp
	mov	esp, ebp
	pop	ebp
	ret	0
??1?$_Vector_iterator@V?$_Vector_val@U?$_Simple_types@H@std@@@std@@@std@@QAE@XZ ENDP ; std::_Vector_iterator<std::_Vector_val<std::_Simple_types<int> > >::~_Vector_iterator<std::_Vector_val<std::_Simple_types<int> > >
_TEXT	ENDS
; Function compile flags: /Odtp /RTCsu /ZI
; File c:\program files (x86)\microsoft visual studio\2017\professional\vc\tools\msvc\14.16.27023\include\vector
;	COMDAT ?_Unwrapped@?$_Vector_iterator@V?$_Vector_val@U?$_Simple_types@H@std@@@std@@@std@@QBEPAHXZ
_TEXT	SEGMENT
_this$ = -8						; size = 4
?_Unwrapped@?$_Vector_iterator@V?$_Vector_val@U?$_Simple_types@H@std@@@std@@@std@@QBEPAHXZ PROC ; std::_Vector_iterator<std::_Vector_val<std::_Simple_types<int> > >::_Unwrapped, COMDAT
; _this$ = ecx

; 326  : 		{

	push	ebp
	mov	ebp, esp
	sub	esp, 204				; 000000ccH
	push	ebx
	push	esi
	push	edi
	push	ecx
	lea	edi, DWORD PTR [ebp-204]
	mov	ecx, 51					; 00000033H
	mov	eax, -858993460				; ccccccccH
	rep stosd
	pop	ecx
	mov	DWORD PTR _this$[ebp], ecx
	mov	ecx, OFFSET __2D4BA300_vector
	call	@__CheckForDebuggerJustMyCode@4

; 327  : 		return (this->_Ptr);

	mov	eax, DWORD PTR _this$[ebp]
	mov	eax, DWORD PTR [eax+8]

; 328  : 		}

	pop	edi
	pop	esi
	pop	ebx
	add	esp, 204				; 000000ccH
	cmp	ebp, esp
	call	__RTC_CheckEsp
	mov	esp, ebp
	pop	ebp
	ret	0
?_Unwrapped@?$_Vector_iterator@V?$_Vector_val@U?$_Simple_types@H@std@@@std@@@std@@QBEPAHXZ ENDP ; std::_Vector_iterator<std::_Vector_val<std::_Simple_types<int> > >::_Unwrapped
_TEXT	ENDS
; Function compile flags: /Odtp /RTCsu /ZI
; File c:\program files (x86)\microsoft visual studio\2017\professional\vc\tools\msvc\14.16.27023\include\vector
;	COMDAT ??D?$_Vector_iterator@V?$_Vector_val@U?$_Simple_types@H@std@@@std@@@std@@QBEAAHXZ
_TEXT	SEGMENT
_this$ = -8						; size = 4
??D?$_Vector_iterator@V?$_Vector_val@U?$_Simple_types@H@std@@@std@@@std@@QBEAAHXZ PROC ; std::_Vector_iterator<std::_Vector_val<std::_Simple_types<int> > >::operator*, COMDAT
; _this$ = ecx

; 257  : 		{	// return designated object

	push	ebp
	mov	ebp, esp
	sub	esp, 204				; 000000ccH
	push	ebx
	push	esi
	push	edi
	push	ecx
	lea	edi, DWORD PTR [ebp-204]
	mov	ecx, 51					; 00000033H
	mov	eax, -858993460				; ccccccccH
	rep stosd
	pop	ecx
	mov	DWORD PTR _this$[ebp], ecx
	mov	ecx, OFFSET __2D4BA300_vector
	call	@__CheckForDebuggerJustMyCode@4

; 258  : 		return (const_cast<reference>(_Mybase::operator*()));

	mov	ecx, DWORD PTR _this$[ebp]
	call	??D?$_Vector_const_iterator@V?$_Vector_val@U?$_Simple_types@H@std@@@std@@@std@@QBEABHXZ ; std::_Vector_const_iterator<std::_Vector_val<std::_Simple_types<int> > >::operator*

; 259  : 		}

	pop	edi
	pop	esi
	pop	ebx
	add	esp, 204				; 000000ccH
	cmp	ebp, esp
	call	__RTC_CheckEsp
	mov	esp, ebp
	pop	ebp
	ret	0
??D?$_Vector_iterator@V?$_Vector_val@U?$_Simple_types@H@std@@@std@@@std@@QBEAAHXZ ENDP ; std::_Vector_iterator<std::_Vector_val<std::_Simple_types<int> > >::operator*
_TEXT	ENDS
; Function compile flags: /Odtp /RTCsu /ZI
; File c:\program files (x86)\microsoft visual studio\2017\professional\vc\tools\msvc\14.16.27023\include\vector
;	COMDAT ??0?$_Vector_iterator@V?$_Vector_val@U?$_Simple_types@H@std@@@std@@@std@@QAE@PAHPBU_Container_base12@1@@Z
_TEXT	SEGMENT
_this$ = -8						; size = 4
__Parg$ = 8						; size = 4
__Pvector$ = 12						; size = 4
??0?$_Vector_iterator@V?$_Vector_val@U?$_Simple_types@H@std@@@std@@@std@@QAE@PAHPBU_Container_base12@1@@Z PROC ; std::_Vector_iterator<std::_Vector_val<std::_Simple_types<int> > >::_Vector_iterator<std::_Vector_val<std::_Simple_types<int> > >, COMDAT
; _this$ = ecx

; 253  : 		{	// construct with pointer _Parg

	push	ebp
	mov	ebp, esp
	sub	esp, 204				; 000000ccH
	push	ebx
	push	esi
	push	edi
	push	ecx
	lea	edi, DWORD PTR [ebp-204]
	mov	ecx, 51					; 00000033H
	mov	eax, -858993460				; ccccccccH
	rep stosd
	pop	ecx
	mov	DWORD PTR _this$[ebp], ecx
	mov	ecx, OFFSET __2D4BA300_vector
	call	@__CheckForDebuggerJustMyCode@4

; 252  : 		: _Mybase(_Parg, _Pvector)

	mov	eax, DWORD PTR __Pvector$[ebp]
	push	eax
	mov	ecx, DWORD PTR __Parg$[ebp]
	push	ecx
	mov	ecx, DWORD PTR _this$[ebp]
